(dp1
S'output'
p2
S"<class 'sqlite3.IntegrityError'> foreign key constraint failed"
p3
sS'layer'
p4
S'C:\\Users\\ANSHUL BASIA\\Desktop\\ACAD\\Sem4\\cop290\\web2py\\applications\\reddit_clone\\controllers/default.py'
p5
sS'code'
p6
S'# -*- coding: utf-8 -*-\n# this file is released under public domain and you can use without limitations\n\n#########################################################################\n## This is a sample controller\n## - index is the default action of any application\n## - user is required for authentication and authorization\n## - download is for downloading files uploaded in the db (does streaming)\n#########################################################################\nPOSTS_PER_PAGE=10\ndef get_catagory():\n    catagory_name=request.args(0)\n    catagory=db.catagory(name=catagory_name)\n    if not catagory:\n        session.flash=\'page not found\'\n        redirect(URL(\'index\'))\n    return catagory\n\ndef index():\n    #http://127.0.0.1:8000/reddit_clone/default/index\n    rows =db(db.catagory).select()\n    return locals()\n\ndef create_post():\n    #http://127.0.0.1:8000/reddit_clone/default/create_post/<catagory>\n    catagory=get_catagory()\n    db.post.catagory.default=catagory.id\n    form=SQLFORM(db.post).process(next=\'view_post/[id]\')\n    return locals()\n\ndef edit_post():\n    #http://127.0.0.1:8000/reddit_clone/default/edit_post/<id>\n    id=request.args(0,cast=int)\n    form=SQLFORM(db.post,id).process(next=\'view_post/[id]\')\n    return locals()\n\ndef comment():\n    id=request.args(0,cast=int)\n    form=SQLFORM(db.comm).process(next=\'view_post/[id]\')\n    return locals()\n\n\n\ndef list_posts_new():\n    catagory=get_catagory()\n    return locals()\n\ndef list_posts_by_datetime():\n    #http://127.0.0.1:8000/reddit_clone/default/list_posts_by_datetime/<catagory>/<page>\n    response.view=\'default/list_posts_by_votes.html\'\n    catagory=get_catagory()\n    page=request.args(1,cast=int,default=0)\n    start=page*POSTS_PER_PAGE\n    stop=start+POSTS_PER_PAGE\n    rows=db(db.post.catagory==catagory.id).select(orderby=~db.post.created_on,limitby=(start,stop))\n    return locals()\n\ndef list_posts_by_author():\n    #http://127.0.0.1:8000/reddit_clone/default/list_posts_by_author/<user_id>/<page>\n    response.view=\'default/list_posts_by_votes.html\'\n    user_id=request.args(0,cast=int)\n    page=request.args(1,cast=int,default=0)\n    start=page*POSTS_PER_PAGE\n    stop=start+POSTS_PER_PAGE\n    rows=db(db.post.created_by==user_id).select(orderby=~db.post.created_on,limitby=(start,stop))\n    return locals()\n\ndef list_posts_by_votes():\n    #http://127.0.0.1:8000/reddit_clone/default/list_posts_by_votes/<catagory>/<page>\n    \n    catagory=get_catagory()\n    page=request.args(1,cast=int,default=0)\n    start=page*POSTS_PER_PAGE\n    stop=start+POSTS_PER_PAGE\n    rows=db(db.post.catagory==catagory.id).select(orderby=~db.post.votes,limitby=(start,stop))\n    return locals()\n\ndef view_post():\n    #http://127.0.0.1:8000/reddit_clone/default/view_post/<id>\n    id=request.args(0,cast=int)\n    post=db.post(id) or redirect(URL(\'index\'))\n    comments=db(db.comm.post==post.id).select(orderby=~db.comm.created_on)\n    return locals()\n\ndef vote_callback():\n    #http://127.0.0.1:8000/reddit_clone/default/vote_callback/<id>/<up or down>\n    id=request.args(0,cast=int)\n    direction=request.args(1)\n    return locals()\n\ndef comm_vote_callback():\n    #http://127.0.0.1:8000/reddit_clone/default/comm_vote_callback/<comm_id>/<up or down>\n    id=request.args(0,cast=int)\n    direction=request.args(1)\n    return locals()\n\n\ndef user():\n    """\n    exposes:\n    http://..../[app]/default/user/login\n    http://..../[app]/default/user/logout\n    http://..../[app]/default/user/register\n    http://..../[app]/default/user/profile\n    http://..../[app]/default/user/retrieve_password\n    http://..../[app]/default/user/change_password\n    http://..../[app]/default/user/bulk_register\n    use @auth.requires_login()\n        @auth.requires_membership(\'group name\')\n        @auth.requires_permission(\'read\',\'table name\',record_id)\n    to decorate functions that need access control\n    also notice there is http://..../[app]/appadmin/manage/auth to allow administrator to manage users\n    """\n    return dict(form=auth())\n\n\n@cache.action()\ndef download():\n    """\n    allows downloading of uploaded files\n    http://..../[app]/default/download/[filename]\n    """\n    return response.download(request, db)\n\n\ndef call():\n    """\n    exposes services. for example:\n    http://..../[app]/default/call/jsonrpc\n    decorate with @services.jsonrpc the functions to expose\n    supports xml, json, xmlrpc, jsonrpc, amfrpc, rss, csv\n    """\n    return service()\n\nresponse._vars=response._caller(comment)\n'
p7
sS'snapshot'
p8
(dp9
S'exception'
p10
(dp11
S'__module__'
p12
S"'sqlite3'"
p13
sS'__getslice__'
p14
S"<method-wrapper '__getslice__' of IntegrityError object>"
p15
sS'__str__'
p16
S"<method-wrapper '__str__' of IntegrityError object>"
p17
sS'__reduce__'
p18
S'<built-in method __reduce__ of IntegrityError object>'
p19
sS'__dict__'
p20
S'{}'
p21
sS'__sizeof__'
p22
S'<built-in method __sizeof__ of IntegrityError object>'
p23
sS'__weakref__'
p24
S'None'
p25
sS'__init__'
p26
S"<method-wrapper '__init__' of IntegrityError object>"
p27
sS'__setattr__'
p28
S"<method-wrapper '__setattr__' of IntegrityError object>"
p29
sS'__reduce_ex__'
p30
S'<built-in method __reduce_ex__ of IntegrityError object>'
p31
sS'__new__'
p32
S'<built-in method __new__ of type object>'
p33
sS'__format__'
p34
S'<built-in method __format__ of IntegrityError object>'
p35
sS'__class__'
p36
S"<class 'sqlite3.IntegrityError'>"
p37
sS'__doc__'
p38
S'None'
p39
sS'__getitem__'
p40
S"<method-wrapper '__getitem__' of IntegrityError object>"
p41
sS'__setstate__'
p42
S'<built-in method __setstate__ of IntegrityError object>'
p43
sS'__getattribute__'
p44
S"<method-wrapper '__getattribute__' of IntegrityError object>"
p45
sS'args'
p46
S"('foreign key constraint failed',)"
p47
sS'__subclasshook__'
p48
S'<built-in method __subclasshook__ of type object>'
p49
sS'__unicode__'
p50
S'<built-in method __unicode__ of IntegrityError object>'
p51
sS'__delattr__'
p52
S"<method-wrapper '__delattr__' of IntegrityError object>"
p53
sS'__repr__'
p54
S"<method-wrapper '__repr__' of IntegrityError object>"
p55
sS'__hash__'
p56
S"<method-wrapper '__hash__' of IntegrityError object>"
p57
ssS'evalue'
p58
S'foreign key constraint failed'
p59
sS'request'
p60
cgluon.html
XML_unpickle
p61
(S'stt\x00\x00<div><table><tr><td style="font-weight:bold;vertical-align:top;">ajax</td><td style="vertical-align:top;">:</td><td><div>False</div></td></tr><tr><td style="font-weight:bold;vertical-align:top;">application</td><td style="vertical-align:top;">:</td><td><div>reddit_clone</div></td></tr><tr><td style="font-weight:bold;vertical-align:top;">args</td><td style="vertical-align:top;">:</td><td><div><table><tr><td><div>1</div></td></tr></table></div></td></tr><tr><td style="font-weight:bold;vertical-align:top;">cid</td><td style="vertical-align:top;">:</td><td><div>None</div></td></tr><tr><td style="font-weight:bold;vertical-align:top;">client</td><td style="vertical-align:top;">:</td><td><div>127.0.0.1</div></td></tr><tr><td style="font-weight:bold;vertical-align:top;">controller</td><td style="vertical-align:top;">:</td><td><div>default</div></td></tr><tr><td style="font-weight:bold;vertical-align:top;">cookies</td><td style="vertical-align:top;">:</td><td><div><table><tr><td style="font-weight:bold;vertical-align:top;">session_id_admin</td><td style="vertical-align:top;">:</td><td><div>127.0.0.1-3678f6e2-74e8-42b5-b953-9e43ecf1f27c<table><tr><td style="font-weight:bold;vertical-align:top;">comment</td><td style="vertical-align:top;">:</td><td><div></div></td></tr><tr><td style="font-weight:bold;vertical-align:top;">domain</td><td style="vertical-align:top;">:</td><td><div></div></td></tr><tr><td style="font-weight:bold;vertical-align:top;">expires</td><td style="vertical-align:top;">:</td><td><div></div></td></tr><tr><td style="font-weight:bold;vertical-align:top;">httponly</td><td style="vertical-align:top;">:</td><td><div></div></td></tr><tr><td style="font-weight:bold;vertical-align:top;">max-age</td><td style="vertical-align:top;">:</td><td><div></div></td></tr><tr><td style="font-weight:bold;vertical-align:top;">path</td><td style="vertical-align:top;">:</td><td><div></div></td></tr><tr><td style="font-weight:bold;vertical-align:top;">secure</td><td style="vertical-align:top;">:</td><td><div></div></td></tr><tr><td style="font-weight:bold;vertical-align:top;">version</td><td style="vertical-align:top;">:</td><td><div></div></td></tr></table></div></td></tr><tr><td style="font-weight:bold;vertical-align:top;">session_id_complaints</td><td style="vertical-align:top;">:</td><td><div>127.0.0.1-b3d26a55-97b7-4e46-b1b5-d7bd4b0f07be<table><tr><td style="font-weight:bold;vertical-align:top;">comment</td><td style="vertical-align:top;">:</td><td><div></div></td></tr><tr><td style="font-weight:bold;vertical-align:top;">domain</td><td style="vertical-align:top;">:</td><td><div></div></td></tr><tr><td style="font-weight:bold;vertical-align:top;">expires</td><td style="vertical-align:top;">:</td><td><div></div></td></tr><tr><td style="font-weight:bold;vertical-align:top;">httponly</td><td style="vertical-align:top;">:</td><td><div></div></td></tr><tr><td style="font-weight:bold;vertical-align:top;">max-age</td><td style="vertical-align:top;">:</td><td><div></div></td></tr><tr><td style="font-weight:bold;vertical-align:top;">path</td><td style="vertical-align:top;">:</td><td><div></div></td></tr><tr><td style="font-weight:bold;vertical-align:top;">secure</td><td style="vertical-align:top;">:</td><td><div></div></td></tr><tr><td style="font-weight:bold;vertical-align:top;">version</td><td style="vertical-align:top;">:</td><td><div></div></td></tr></table></div></td></tr><tr><td style="font-weight:bold;vertical-align:top;">session_id_edit</td><td style="vertical-align:top;">:</td><td><div>127.0.0.1-058adec6-66dc-49c1-988d-29959461c50d<table><tr><td style="font-weight:bold;vertical-align:top;">comment</td><td style="vertical-align:top;">:</td><td><div></div></td></tr><tr><td style="font-weight:bold;vertical-align:top;">domain</td><td style="vertical-align:top;">:</td><td><div></div></td></tr><tr><td style="font-weight:bold;vertical-align:top;">expires</td><td style="vertical-align:top;">:</td><td><div></div></td></tr><tr><td style="font-weight:bold;vertical-align:top;">httponly</td><td style="vertical-align:top;">:</td><td><div></div></td></tr><tr><td style="font-weight:bold;vertical-align:top;">max-age</td><td style="vertical-align:top;">:</td><td><div></div></td></tr><tr><td style="font-weight:bold;vertical-align:top;">path</td><td style="vertical-align:top;">:</td><td><div></div></td></tr><tr><td style="font-weight:bold;vertical-align:top;">secure</td><td style="vertical-align:top;">:</td><td><div></div></td></tr><tr><td style="font-weight:bold;vertical-align:top;">version</td><td style="vertical-align:top;">:</td><td><div></div></td></tr></table></div></td></tr><tr><td style="font-weight:bold;vertical-align:top;">session_id_reddit_clone</td><td style="vertical-align:top;">:</td><td><div>127.0.0.1-2e65d946-5784-418a-88f2-ceeccac94d3f<table><tr><td style="font-weight:bold;vertical-align:top;">comment</td><td style="vertical-align:top;">:</td><td><div></div></td></tr><tr><td style="font-weight:bold;vertical-align:top;">domain</td><td style="vertical-align:top;">:</td><td><div></div></td></tr><tr><td style="font-weight:bold;vertical-align:top;">expires</td><td style="vertical-align:top;">:</td><td><div></div></td></tr><tr><td style="font-weight:bold;vertical-align:top;">httponly</td><td style="vertical-align:top;">:</td><td><div></div></td></tr><tr><td style="font-weight:bold;vertical-align:top;">max-age</td><td style="vertical-align:top;">:</td><td><div></div></td></tr><tr><td style="font-weight:bold;vertical-align:top;">path</td><td style="vertical-align:top;">:</td><td><div></div></td></tr><tr><td style="font-weight:bold;vertical-align:top;">secure</td><td style="vertical-align:top;">:</td><td><div></div></td></tr><tr><td style="font-weight:bold;vertical-align:top;">version</td><td style="vertical-align:top;">:</td><td><div></div></td></tr></table></div></td></tr><tr><td style="font-weight:bold;vertical-align:top;">session_id_welcome</td><td style="vertical-align:top;">:</td><td><div>127.0.0.1-be404ae6-939e-4526-9852-475c93cb56e6<table><tr><td style="font-weight:bold;vertical-align:top;">comment</td><td style="vertical-align:top;">:</td><td><div></div></td></tr><tr><td style="font-weight:bold;vertical-align:top;">domain</td><td style="vertical-align:top;">:</td><td><div></div></td></tr><tr><td style="font-weight:bold;vertical-align:top;">expires</td><td style="vertical-align:top;">:</td><td><div></div></td></tr><tr><td style="font-weight:bold;vertical-align:top;">httponly</td><td style="vertical-align:top;">:</td><td><div></div></td></tr><tr><td style="font-weight:bold;vertical-align:top;">max-age</td><td style="vertical-align:top;">:</td><td><div></div></td></tr><tr><td style="font-weight:bold;vertical-align:top;">path</td><td style="vertical-align:top;">:</td><td><div></div></td></tr><tr><td style="font-weight:bold;vertical-align:top;">secure</td><td style="vertical-align:top;">:</td><td><div></div></td></tr><tr><td style="font-weight:bold;vertical-align:top;">version</td><td style="vertical-align:top;">:</td><td><div></div></td></tr></table></div></td></tr></table></div></td></tr><tr><td style="font-weight:bold;vertical-align:top;">env</td><td style="vertical-align:top;">:</td><td><div><table><tr><td style="font-weight:bold;vertical-align:top;">CONTENT_LENGTH</td><td style="vertical-align:top;">:</td><td><div>658</div></td></tr><tr><td style="font-weight:bold;vertical-align:top;">CONTENT_TYPE</td><td style="vertical-align:top;">:</td><td><div>multipart/form-data; boundary=----WebKitFormBoundary3LXGU043vvW6rp7X</div></td></tr><tr><td style="font-weight:bold;vertical-align:top;">HTTP_ACCEPT</td><td style="vertical-align:top;">:</td><td><div>text/html,application/xhtml+xml,application/xml;q=0.9,image/webp,*/*;q=0.8</div></td></tr><tr><td style="font-weight:bold;vertical-align:top;">HTTP_ACCEPT_ENCODING</td><td style="vertical-align:top;">:</td><td><div>gzip, deflate</div></td></tr><tr><td style="font-weight:bold;vertical-align:top;">HTTP_ACCEPT_LANGUAGE</td><td style="vertical-align:top;">:</td><td><div>en,hi;q=0.8,en-US;q=0.6</div></td></tr><tr><td style="font-weight:bold;vertical-align:top;">HTTP_CACHE_CONTROL</td><td style="vertical-align:top;">:</td><td><div>max-age=0</div></td></tr><tr><td style="font-weight:bold;vertical-align:top;">HTTP_CONNECTION</td><td style="vertical-align:top;">:</td><td><div>keep-alive</div></td></tr><tr><td style="font-weight:bold;vertical-align:top;">HTTP_CONTENT_LENGTH</td><td style="vertical-align:top;">:</td><td><div>658</div></td></tr><tr><td style="font-weight:bold;vertical-align:top;">HTTP_CONTENT_TYPE</td><td style="vertical-align:top;">:</td><td><div>multipart/form-data; boundary=----WebKitFormBoundary3LXGU043vvW6rp7X</div></td></tr><tr><td style="font-weight:bold;vertical-align:top;">HTTP_COOKIE</td><td style="vertical-align:top;">:</td><td><div>session_id_edit=127.0.0.1-058adec6-66dc-49c1-988d-29959461c50d; session_id_welcome=127.0.0.1-be404ae6-939e-4526-9852-475c93cb56e6; session_id_complaints=127.0.0.1-b3d26a55-97b7-4e46-b1b5-d7bd4b0f07be; session_id_admin=127.0.0.1-3678f6e2-74e8-42b5-b953-9e43ecf1f27c; session_id_reddit_clone=127.0.0.1-2e65d946-5784-418a-88f2-ceeccac94d3f</div></td></tr><tr><td style="font-weight:bold;vertical-align:top;">HTTP_HOST</td><td style="vertical-align:top;">:</td><td><div>127.0.0.1:8000</div></td></tr><tr><td style="font-weight:bold;vertical-align:top;">HTTP_ORIGIN</td><td style="vertical-align:top;">:</td><td><div>http://127.0.0.1:8000</div></td></tr><tr><td style="font-weight:bold;vertical-align:top;">HTTP_REFERER</td><td style="vertical-align:top;">:</td><td><div>http://127.0.0.1:8000/reddit_clone/default/comment/1</div></td></tr><tr><td style="font-weight:bold;vertical-align:top;">HTTP_UPGRADE_INSECURE_REQUESTS</td><td style="vertical-align:top;">:</td><td><div>1</div></td></tr><tr><td style="font-weight:bold;vertical-align:top;">HTTP_USER_AGENT</td><td style="vertical-align:top;">:</td><td><div>Mozilla/5.0 (Windows NT 10.0; WOW64) AppleWebKit/537.36 (KHTML, like Gecko) Chrome/48.0.2564.116 Safari/537.36</div></td></tr><tr><td style="font-weight:bold;vertical-align:top;">PATH_INFO</td><td style="vertical-align:top;">:</td><td><div>/reddit_clone/default/comment/1</div></td></tr><tr><td style="font-weight:bold;vertical-align:top;">QUERY_STRING</td><td style="vertical-align:top;">:</td><td><div></div></td></tr><tr><td style="font-weight:bold;vertical-align:top;">REMOTE_ADDR</td><td style="vertical-align:top;">:</td><td><div>127.0.0.1</div></td></tr><tr><td style="font-weight:bold;vertical-align:top;">REMOTE_PORT</td><td style="vertical-align:top;">:</td><td><div>62740</div></td></tr><tr><td style="font-weight:bold;vertical-align:top;">REQUEST_METHOD</td><td style="vertical-align:top;">:</td><td><div>POST</div></td></tr><tr><td style="font-weight:bold;vertical-align:top;">SCRIPT_NAME</td><td style="vertical-align:top;">:</td><td><div></div></td></tr><tr><td style="font-weight:bold;vertical-align:top;">SERVER_NAME</td><td style="vertical-align:top;">:</td><td><div>ANSH_27</div></td></tr><tr><td style="font-weight:bold;vertical-align:top;">SERVER_PORT</td><td style="vertical-align:top;">:</td><td><div>8000</div></td></tr><tr><td style="font-weight:bold;vertical-align:top;">SERVER_PROTOCOL</td><td style="vertical-align:top;">:</td><td><div>HTTP/1.1</div></td></tr><tr><td style="font-weight:bold;vertical-align:top;">SERVER_SOFTWARE</td><td style="vertical-align:top;">:</td><td><div>Rocket 1.2.6</div></td></tr><tr><td style="font-weight:bold;vertical-align:top;">app_folders</td><td style="vertical-align:top;">:</td><td><div>set([&#x27;C:\\\\Users\\\\ANSHUL BASIA\\\\Desktop\\\\ACAD\\\\Sem4\\\\cop290\\\\web2py\\\\applications\\\\admin\\\\&#x27;, &#x27;C:\\\\Users\\\\ANSHUL BASIA\\\\Desktop\\\\ACAD\\\\Sem4\\\\cop290\\\\web2py\\\\applications\\\\welcome\\\\&#x27;, &#x27;C:\\\\Users\\\\ANSHUL BASIA\\\\Desktop\\\\ACAD\\\\Sem4\\\\cop290\\\\web2py\\\\applications\\\\edit\\\\&#x27;, &#x27;C:\\\\Users\\\\ANSHUL BASIA\\\\Desktop\\\\ACAD\\\\Sem4\\\\cop290\\\\web2py\\\\applications\\\\Complaints\\\\&#x27;, &#x27;C:\\\\Users\\\\ANSHUL BASIA\\\\Desktop\\\\ACAD\\\\Sem4\\\\cop290\\\\web2py\\\\applications\\\\reddit_clone\\\\&#x27;])</div></td></tr><tr><td style="font-weight:bold;vertical-align:top;">applications_parent</td><td style="vertical-align:top;">:</td><td><div>C:\\Users\\ANSHUL BASIA\\Desktop\\ACAD\\Sem4\\cop290\\web2py</div></td></tr><tr><td style="font-weight:bold;vertical-align:top;">cmd_args</td><td style="vertical-align:top;">:</td><td><div><table></table></div></td></tr><tr><td style="font-weight:bold;vertical-align:top;">cmd_options</td><td style="vertical-align:top;">:</td><td><div>&lt;Values at 0x2593828: {&#x27;verbose&#x27;: False, &#x27;ip&#x27;: &#x27;127.0.0.1&#x27;, &#x27;debuglevel&#x27;: 30, &#x27;with_scheduler&#x27;: False, &#x27;ips&#x27;: [&#x27;2001:0:9d38:6ab8:1435:c604:c49e:2e35&#x27;, &#x27;192.168.1.103&#x27;, &#x27;fe80::f4e8:1a6a:a38f:c1a9%8&#x27;, &#x27;fe80::1435:c604:c49e:2e35%4&#x27;], &#x27;shutdown_timeout&#x27;: 5, &#x27;taskbar&#x27;: False, &#x27;with_coverage&#x27;: False, &#x27;scheduler_groups&#x27;: None, &#x27;port&#x27;: 8000, &#x27;maxthreads&#x27;: None, &#x27;softcron&#x27;: False, &#x27;server_name&#x27;: &#x27;ANSH_27&#x27;, &#x27;bpython&#x27;: False, &#x27;nogui&#x27;: False, &#x27;pid_filename&#x27;: &#x27;httpserver.pid&#x27;, &#x27;print_errors&#x27;: False, &#x27;extcron&#x27;: False, &#x27;runcron&#x27;: False, &#x27;run_system_tests&#x27;: False, &#x27;test&#x27;: None, &#x27;folder&#x27;: &#x27;C:\\\\Users\\\\ANSHUL BASIA\\\\Desktop\\\\ACAD\\\\Sem4\\\\cop290\\\\web2py&#x27;, &#x27;config&#x27;: &#x27;&#x27;, &#x27;minthreads&#x27;: None, &#x27;shell&#x27;: None, &#x27;run&#x27;: &#x27;&#x27;, &#x27;log_filename&#x27;: &#x27;httpserver.log&#x27;, &#x27;profiler_dir&#x27;: None, &#x27;args&#x27;: [&#x27;&#x27;], &#x27;socket_timeout&#x27;: 5, &#x27;ssl_ca_certificate&#x27;: None, &#x27;scheduler&#x27;: None, &#x27;interfaces&#x27;: None, &#x27;ssl_private_key&#x27;: &#x27;&#x27;, &#x27;gae&#x27;: None, &#x27;password&#x27;: &#x27;&lt;ask&gt;&#x27;, &#x27;request_queue_size&#x27;: 5, &#x27;ssl_certificate&#x27;: &#x27;&#x27;, &#x27;cronjob&#x27;: False, &#x27;numthreads&#x27;: None, &#x27;quiet&#x27;: False, &#x27;import_models&#x27;: False, &#x27;timeout&#x27;: 10, &#x27;plain&#x27;: False, &#x27;nobanner&#x27;: False}&gt;</div></td></tr><tr><td style="font-weight:bold;vertical-align:top;">content_length</td><td style="vertical-align:top;">:</td><td><div>658</div></td></tr><tr><td style="font-weight:bold;vertical-align:top;">content_type</td><td style="vertical-align:top;">:</td><td><div>multipart/form-data; boundary=----WebKitFormBoundary3LXGU043vvW6rp7X</div></td></tr><tr><td style="font-weight:bold;vertical-align:top;">db_sessions</td><td style="vertical-align:top;">:</td><td><div>set([])</div></td></tr><tr><td style="font-weight:bold;vertical-align:top;">debugging</td><td style="vertical-align:top;">:</td><td><div>True</div></td></tr><tr><td style="font-weight:bold;vertical-align:top;">gluon_parent</td><td style="vertical-align:top;">:</td><td><div>C:\\Users\\ANSHUL BASIA\\Desktop\\ACAD\\Sem4\\cop290\\web2py</div></td></tr><tr><td style="font-weight:bold;vertical-align:top;">http_accept</td><td style="vertical-align:top;">:</td><td><div>text/html,application/xhtml+xml,application/xml;q=0.9,image/webp,*/*;q=0.8</div></td></tr><tr><td style="font-weight:bold;vertical-align:top;">http_accept_encoding</td><td style="vertical-align:top;">:</td><td><div>gzip, deflate</div></td></tr><tr><td style="font-weight:bold;vertical-align:top;">http_accept_language</td><td style="vertical-align:top;">:</td><td><div>en,hi;q=0.8,en-US;q=0.6</div></td></tr><tr><td style="font-weight:bold;vertical-align:top;">http_cache_control</td><td style="vertical-align:top;">:</td><td><div>max-age=0</div></td></tr><tr><td style="font-weight:bold;vertical-align:top;">http_connection</td><td style="vertical-align:top;">:</td><td><div>keep-alive</div></td></tr><tr><td style="font-weight:bold;vertical-align:top;">http_content_length</td><td style="vertical-align:top;">:</td><td><div>658</div></td></tr><tr><td style="font-weight:bold;vertical-align:top;">http_content_type</td><td style="vertical-align:top;">:</td><td><div>multipart/form-data; boundary=----WebKitFormBoundary3LXGU043vvW6rp7X</div></td></tr><tr><td style="font-weight:bold;vertical-align:top;">http_cookie</td><td style="vertical-align:top;">:</td><td><div>session_id_edit=127.0.0.1-058adec6-66dc-49c1-988d-29959461c50d; session_id_welcome=127.0.0.1-be404ae6-939e-4526-9852-475c93cb56e6; session_id_complaints=127.0.0.1-b3d26a55-97b7-4e46-b1b5-d7bd4b0f07be; session_id_admin=127.0.0.1-3678f6e2-74e8-42b5-b953-9e43ecf1f27c; session_id_reddit_clone=127.0.0.1-2e65d946-5784-418a-88f2-ceeccac94d3f</div></td></tr><tr><td style="font-weight:bold;vertical-align:top;">http_host</td><td style="vertical-align:top;">:</td><td><div>127.0.0.1:8000</div></td></tr><tr><td style="font-weight:bold;vertical-align:top;">http_origin</td><td style="vertical-align:top;">:</td><td><div>http://127.0.0.1:8000</div></td></tr><tr><td style="font-weight:bold;vertical-align:top;">http_referer</td><td style="vertical-align:top;">:</td><td><div>http://127.0.0.1:8000/reddit_clone/default/comment/1</div></td></tr><tr><td style="font-weight:bold;vertical-align:top;">http_upgrade_insecure_requests</td><td style="vertical-align:top;">:</td><td><div>1</div></td></tr><tr><td style="font-weight:bold;vertical-align:top;">http_user_agent</td><td style="vertical-align:top;">:</td><td><div>Mozilla/5.0 (Windows NT 10.0; WOW64) AppleWebKit/537.36 (KHTML, like Gecko) Chrome/48.0.2564.116 Safari/537.36</div></td></tr><tr><td style="font-weight:bold;vertical-align:top;">is_jython</td><td style="vertical-align:top;">:</td><td><div>False</div></td></tr><tr><td style="font-weight:bold;vertical-align:top;">is_pypy</td><td style="vertical-align:top;">:</td><td><div>False</div></td></tr><tr><td style="font-weight:bold;vertical-align:top;">is_source</td><td style="vertical-align:top;">:</td><td><div>False</div></td></tr><tr><td style="font-weight:bold;vertical-align:top;">local_hosts</td><td style="vertical-align:top;">:</td><td><div><table><tr><td><div>ANSH_27</div></td></tr><tr><td><div>fe80::1435:c604:c49e:2e35%4</div></td></tr><tr><td><div>2001:0:9d38:6ab8:1435:c604:c49e:2e35</div></td></tr><tr><td><div>192.168.1.103</div></td></tr><tr><td><div>::ffff:127.0.0.1</div></td></tr><tr><td><div>::1</div></td></tr><tr><td><div>fe80::f4e8:1a6a:a38f:c1a9%8</div></td></tr><tr><td><div>127.0.0.1</div></td></tr></table></div></td></tr><tr><td style="font-weight:bold;vertical-align:top;">path_info</td><td style="vertical-align:top;">:</td><td><div>/reddit_clone/default/comment/1</div></td></tr><tr><td style="font-weight:bold;vertical-align:top;">query_string</td><td style="vertical-align:top;">:</td><td><div></div></td></tr><tr><td style="font-weight:bold;vertical-align:top;">remote_addr</td><td style="vertical-align:top;">:</td><td><div>127.0.0.1</div></td></tr><tr><td style="font-weight:bold;vertical-align:top;">remote_port</td><td style="vertical-align:top;">:</td><td><div>62740</div></td></tr><tr><td style="font-weight:bold;vertical-align:top;">request_method</td><td style="vertical-align:top;">:</td><td><div>POST</div></td></tr><tr><td style="font-weight:bold;vertical-align:top;">request_uri</td><td style="vertical-align:top;">:</td><td><div>/reddit_clone/default/comment/1</div></td></tr><tr><td style="font-weight:bold;vertical-align:top;">script_name</td><td style="vertical-align:top;">:</td><td><div></div></td></tr><tr><td style="font-weight:bold;vertical-align:top;">server_name</td><td style="vertical-align:top;">:</td><td><div>ANSH_27</div></td></tr><tr><td style="font-weight:bold;vertical-align:top;">server_port</td><td style="vertical-align:top;">:</td><td><div>8000</div></td></tr><tr><td style="font-weight:bold;vertical-align:top;">server_protocol</td><td style="vertical-align:top;">:</td><td><div>HTTP/1.1</div></td></tr><tr><td style="font-weight:bold;vertical-align:top;">server_software</td><td style="vertical-align:top;">:</td><td><div>Rocket 1.2.6</div></td></tr><tr><td style="font-weight:bold;vertical-align:top;">web2py_path</td><td style="vertical-align:top;">:</td><td><div>C:\\Users\\ANSHUL BASIA\\Desktop\\ACAD\\Sem4\\cop290\\web2py</div></td></tr><tr><td style="font-weight:bold;vertical-align:top;">web2py_version</td><td style="vertical-align:top;">:</td><td><div>2.13.4-stable+timestamp.2015.12.26.04.59.39</div></td></tr><tr><td style="font-weight:bold;vertical-align:top;">wsgi.errors</td><td style="vertical-align:top;">:</td><td><div>&lt;open file &#x27;&lt;stderr&gt;&#x27;, mode &#x27;w&#x27; at 0x00A5D0D0&gt;</div></td></tr><tr><td style="font-weight:bold;vertical-align:top;">wsgi.file_wrapper</td><td style="vertical-align:top;">:</td><td><div>&lt;class wsgiref.util.FileWrapper at 0x02C96180&gt;</div></td></tr><tr><td style="font-weight:bold;vertical-align:top;">wsgi.input</td><td style="vertical-align:top;">:</td><td><div>&lt;socket._fileobject object at 0x0B8561F0&gt;</div></td></tr><tr><td style="font-weight:bold;vertical-align:top;">wsgi.multiprocess</td><td style="vertical-align:top;">:</td><td><div>False</div></td></tr><tr><td style="font-weight:bold;vertical-align:top;">wsgi.multithread</td><td style="vertical-align:top;">:</td><td><div>True</div></td></tr><tr><td style="font-weight:bold;vertical-align:top;">wsgi.run_once</td><td style="vertical-align:top;">:</td><td><div>False</div></td></tr><tr><td style="font-weight:bold;vertical-align:top;">wsgi.url_scheme</td><td style="vertical-align:top;">:</td><td><div>http</div></td></tr><tr><td style="font-weight:bold;vertical-align:top;">wsgi.version</td><td style="vertical-align:top;">:</td><td><div><table><tr><td><div>1</div></td></tr><tr><td><div>0</div></td></tr></table></div></td></tr><tr><td style="font-weight:bold;vertical-align:top;">wsgi_errors</td><td style="vertical-align:top;">:</td><td><div>&lt;open file &#x27;&lt;stderr&gt;&#x27;, mode &#x27;w&#x27; at 0x00A5D0D0&gt;</div></td></tr><tr><td style="font-weight:bold;vertical-align:top;">wsgi_file_wrapper</td><td style="vertical-align:top;">:</td><td><div>&lt;class wsgiref.util.FileWrapper at 0x02C96180&gt;</div></td></tr><tr><td style="font-weight:bold;vertical-align:top;">wsgi_input</td><td style="vertical-align:top;">:</td><td><div>&lt;socket._fileobject object at 0x0B8561F0&gt;</div></td></tr><tr><td style="font-weight:bold;vertical-align:top;">wsgi_multiprocess</td><td style="vertical-align:top;">:</td><td><div>False</div></td></tr><tr><td style="font-weight:bold;vertical-align:top;">wsgi_multithread</td><td style="vertical-align:top;">:</td><td><div>True</div></td></tr><tr><td style="font-weight:bold;vertical-align:top;">wsgi_run_once</td><td style="vertical-align:top;">:</td><td><div>False</div></td></tr><tr><td style="font-weight:bold;vertical-align:top;">wsgi_url_scheme</td><td style="vertical-align:top;">:</td><td><div>http</div></td></tr><tr><td style="font-weight:bold;vertical-align:top;">wsgi_version</td><td style="vertical-align:top;">:</td><td><div><table><tr><td><div>1</div></td></tr><tr><td><div>0</div></td></tr></table></div></td></tr></table></div></td></tr><tr><td style="font-weight:bold;vertical-align:top;">extension</td><td style="vertical-align:top;">:</td><td><div>html</div></td></tr><tr><td style="font-weight:bold;vertical-align:top;">folder</td><td style="vertical-align:top;">:</td><td><div>C:\\Users\\ANSHUL BASIA\\Desktop\\ACAD\\Sem4\\cop290\\web2py\\applications\\reddit_clone\\</div></td></tr><tr><td style="font-weight:bold;vertical-align:top;">function</td><td style="vertical-align:top;">:</td><td><div>comment</div></td></tr><tr><td style="font-weight:bold;vertical-align:top;">global_settings</td><td style="vertical-align:top;">:</td><td><div><table><tr><td style="font-weight:bold;vertical-align:top;">app_folders</td><td style="vertical-align:top;">:</td><td><div>set([&#x27;C:\\\\Users\\\\ANSHUL BASIA\\\\Desktop\\\\ACAD\\\\Sem4\\\\cop290\\\\web2py\\\\applications\\\\admin\\\\&#x27;, &#x27;C:\\\\Users\\\\ANSHUL BASIA\\\\Desktop\\\\ACAD\\\\Sem4\\\\cop290\\\\web2py\\\\applications\\\\welcome\\\\&#x27;, &#x27;C:\\\\Users\\\\ANSHUL BASIA\\\\Desktop\\\\ACAD\\\\Sem4\\\\cop290\\\\web2py\\\\applications\\\\edit\\\\&#x27;, &#x27;C:\\\\Users\\\\ANSHUL BASIA\\\\Desktop\\\\ACAD\\\\Sem4\\\\cop290\\\\web2py\\\\applications\\\\Complaints\\\\&#x27;, &#x27;C:\\\\Users\\\\ANSHUL BASIA\\\\Desktop\\\\ACAD\\\\Sem4\\\\cop290\\\\web2py\\\\applications\\\\reddit_clone\\\\&#x27;])</div></td></tr><tr><td style="font-weight:bold;vertical-align:top;">applications_parent</td><td style="vertical-align:top;">:</td><td><div>C:\\Users\\ANSHUL BASIA\\Desktop\\ACAD\\Sem4\\cop290\\web2py</div></td></tr><tr><td style="font-weight:bold;vertical-align:top;">cmd_args</td><td style="vertical-align:top;">:</td><td><div><table></table></div></td></tr><tr><td style="font-weight:bold;vertical-align:top;">cmd_options</td><td style="vertical-align:top;">:</td><td><div>&lt;Values at 0x2593828: {&#x27;verbose&#x27;: False, &#x27;ip&#x27;: &#x27;127.0.0.1&#x27;, &#x27;debuglevel&#x27;: 30, &#x27;with_scheduler&#x27;: False, &#x27;ips&#x27;: [&#x27;2001:0:9d38:6ab8:1435:c604:c49e:2e35&#x27;, &#x27;192.168.1.103&#x27;, &#x27;fe80::f4e8:1a6a:a38f:c1a9%8&#x27;, &#x27;fe80::1435:c604:c49e:2e35%4&#x27;], &#x27;shutdown_timeout&#x27;: 5, &#x27;taskbar&#x27;: False, &#x27;with_coverage&#x27;: False, &#x27;scheduler_groups&#x27;: None, &#x27;port&#x27;: 8000, &#x27;maxthreads&#x27;: None, &#x27;softcron&#x27;: False, &#x27;server_name&#x27;: &#x27;ANSH_27&#x27;, &#x27;bpython&#x27;: False, &#x27;nogui&#x27;: False, &#x27;pid_filename&#x27;: &#x27;httpserver.pid&#x27;, &#x27;print_errors&#x27;: False, &#x27;extcron&#x27;: False, &#x27;runcron&#x27;: False, &#x27;run_system_tests&#x27;: False, &#x27;test&#x27;: None, &#x27;folder&#x27;: &#x27;C:\\\\Users\\\\ANSHUL BASIA\\\\Desktop\\\\ACAD\\\\Sem4\\\\cop290\\\\web2py&#x27;, &#x27;config&#x27;: &#x27;&#x27;, &#x27;minthreads&#x27;: None, &#x27;shell&#x27;: None, &#x27;run&#x27;: &#x27;&#x27;, &#x27;log_filename&#x27;: &#x27;httpserver.log&#x27;, &#x27;profiler_dir&#x27;: None, &#x27;args&#x27;: [&#x27;&#x27;], &#x27;socket_timeout&#x27;: 5, &#x27;ssl_ca_certificate&#x27;: None, &#x27;scheduler&#x27;: None, &#x27;interfaces&#x27;: None, &#x27;ssl_private_key&#x27;: &#x27;&#x27;, &#x27;gae&#x27;: None, &#x27;password&#x27;: &#x27;&lt;ask&gt;&#x27;, &#x27;request_queue_size&#x27;: 5, &#x27;ssl_certificate&#x27;: &#x27;&#x27;, &#x27;cronjob&#x27;: False, &#x27;numthreads&#x27;: None, &#x27;quiet&#x27;: False, &#x27;import_models&#x27;: False, &#x27;timeout&#x27;: 10, &#x27;plain&#x27;: False, &#x27;nobanner&#x27;: False}&gt;</div></td></tr><tr><td style="font-weight:bold;vertical-align:top;">db_sessions</td><td style="vertical-align:top;">:</td><td><div>set([])</div></td></tr><tr><td style="font-weight:bold;vertical-align:top;">debugging</td><td style="vertical-align:top;">:</td><td><div>True</div></td></tr><tr><td style="font-weight:bold;vertical-align:top;">gluon_parent</td><td style="vertical-align:top;">:</td><td><div>C:\\Users\\ANSHUL BASIA\\Desktop\\ACAD\\Sem4\\cop290\\web2py</div></td></tr><tr><td style="font-weight:bold;vertical-align:top;">is_jython</td><td style="vertical-align:top;">:</td><td><div>False</div></td></tr><tr><td style="font-weight:bold;vertical-align:top;">is_pypy</td><td style="vertical-align:top;">:</td><td><div>False</div></td></tr><tr><td style="font-weight:bold;vertical-align:top;">is_source</td><td style="vertical-align:top;">:</td><td><div>False</div></td></tr><tr><td style="font-weight:bold;vertical-align:top;">local_hosts</td><td style="vertical-align:top;">:</td><td><div><table><tr><td><div>ANSH_27</div></td></tr><tr><td><div>fe80::1435:c604:c49e:2e35%4</div></td></tr><tr><td><div>2001:0:9d38:6ab8:1435:c604:c49e:2e35</div></td></tr><tr><td><div>192.168.1.103</div></td></tr><tr><td><div>::ffff:127.0.0.1</div></td></tr><tr><td><div>::1</div></td></tr><tr><td><div>fe80::f4e8:1a6a:a38f:c1a9%8</div></td></tr><tr><td><div>127.0.0.1</div></td></tr></table></div></td></tr><tr><td style="font-weight:bold;vertical-align:top;">web2py_version</td><td style="vertical-align:top;">:</td><td><div>2.13.4-stable+timestamp.2015.12.26.04.59.39</div></td></tr></table></div></td></tr><tr><td style="font-weight:bold;vertical-align:top;">is_https</td><td style="vertical-align:top;">:</td><td><div>False</div></td></tr><tr><td style="font-weight:bold;vertical-align:top;">is_local</td><td style="vertical-align:top;">:</td><td><div>True</div></td></tr><tr><td style="font-weight:bold;vertical-align:top;">is_restful</td><td style="vertical-align:top;">:</td><td><div>False</div></td></tr><tr><td style="font-weight:bold;vertical-align:top;">is_scheduler</td><td style="vertical-align:top;">:</td><td><div>False</div></td></tr><tr><td style="font-weight:bold;vertical-align:top;">is_shell</td><td style="vertical-align:top;">:</td><td><div>False</div></td></tr><tr><td style="font-weight:bold;vertical-align:top;">now</td><td style="vertical-align:top;">:</td><td><div>datetime.datetime(2016, 3, 3, 2, 52, 50, 633000)</div></td></tr><tr><td style="font-weight:bold;vertical-align:top;">raw_args</td><td style="vertical-align:top;">:</td><td><div>1</div></td></tr><tr><td style="font-weight:bold;vertical-align:top;">raw_extension</td><td style="vertical-align:top;">:</td><td><div>None</div></td></tr><tr><td style="font-weight:bold;vertical-align:top;">url</td><td style="vertical-align:top;">:</td><td><div>/reddit_clone/default/comment/1</div></td></tr><tr><td style="font-weight:bold;vertical-align:top;">utcnow</td><td style="vertical-align:top;">:</td><td><div>datetime.datetime(2016, 3, 2, 21, 22, 50, 633000)</div></td></tr><tr><td style="font-weight:bold;vertical-align:top;">wsgi</td><td style="vertical-align:top;">:</td><td><div>&lt;gluon.main.LazyWSGI object at 0x047417B0&gt;</div></td></tr></table></div>'
tRp62
sS'frames'
p63
(lp64
(dp65
S'file'
p66
S'C:\\Users\\ANSHUL BASIA\\Desktop\\ACAD\\Sem4\\cop290\\web2py\\gluon\\restricted.py'
p67
sS'dump'
p68
(dp69
S'environment'
p70
S"{'A': <class 'gluon.html.A'>, 'ANY_OF': <class 'gluon.validators.ANY_OF'>, 'ASSIGNJS': <function ASSIGNJS>, 'AppConfig': <function AppConfig>, 'Auth': <class 'gluon.tools.Auth'>, 'B': <class 'gluon.html.B'>, 'BEAUTIFY': <class 'gluon.html.BEAUTIFY'>, 'BODY': <class 'gluon.html.BODY'>, 'BR': <class 'gluon.html.BR'>, 'BUTTON': <class 'gluon.html.BUTTON'>, ...}"
p71
sS'ccode'
p72
S'<code object <module> at 0BF288D8, file "C:\\User...ns\\reddit_clone\\controllers/default.py", line 10>'
p73
ssS'lnum'
p74
I227
sS'lines'
p75
(dp76
I224
S'            ccode = code'
p77
sI225
S'        else:'
p78
sI226
S'            ccode = compile2(code, layer)'
p79
sI227
S'        exec ccode in environment'
p80
sI228
S'    except HTTP:'
p81
sI229
S'        raise'
p82
sI230
S'    except RestrictedError:'
p83
sI231
S'        # do not encapsulate (obfuscate) the original RestrictedError'
p84
sI222
S'    try:'
p85
sI223
S'        if isinstance(code, types.CodeType):'
p86
ssS'call'
p87
S"(code='# -*- coding: utf-8 -*-\\n# this file is released ...vice()\\n\\nresponse._vars=response._caller(comment)\\n', environment={'A': <class 'gluon.html.A'>, 'ANY_OF': <class 'gluon.validators.ANY_OF'>, 'ASSIGNJS': <function ASSIGNJS>, 'AppConfig': <function AppConfig>, 'Auth': <class 'gluon.tools.Auth'>, 'B': <class 'gluon.html.B'>, 'BEAUTIFY': <class 'gluon.html.BEAUTIFY'>, 'BODY': <class 'gluon.html.BODY'>, 'BR': <class 'gluon.html.BR'>, 'BUTTON': <class 'gluon.html.BUTTON'>, ...}, layer=r'C:\\Users\\ANSHUL BASIA\\Desktop\\ACAD\\Sem4\\cop290\\w...\\applications\\reddit_clone\\controllers/default.py')"
p88
sS'func'
p89
S'restricted'
p90
sa(dp91
g66
S'C:\\Users\\ANSHUL BASIA\\Desktop\\ACAD\\Sem4\\cop290\\web2py\\applications\\reddit_clone\\controllers\\default.py'
p92
sg68
(dp93
sg74
I135
sg75
(dp94
I128
S'    exposes services. for example:'
p95
sI129
S'    http://..../[app]/default/call/jsonrpc'
p96
sI130
S'    decorate with @services.jsonrpc the functions to expose'
p97
sI131
S'    supports xml, json, xmlrpc, jsonrpc, amfrpc, rss, csv'
p98
sI132
S'    """'
p99
sI133
S'    return service()'
p100
sI124
S''
sI125
S''
sI126
S'def call():'
p101
sI127
S'    """'
p102
ssg87
S'()'
p103
sg89
S'<module>'
p104
sa(dp105
g66
S'C:\\Users\\ANSHUL BASIA\\Desktop\\ACAD\\Sem4\\cop290\\web2py\\gluon\\globals.py'
p106
sg68
(dp107
S'self'
p108
S'undefined'
p109
sS'f'
S'<function comment>'
p110
ssg74
I412
sg75
(dp111
I416
S"        self.generic_patterns = ['*']"
p112
sI407
S"        self.flash = ''            # used by the default view layout"
p113
sI408
S'        self.meta = Storage()      # used by web2py_ajax.html'
p114
sI409
S'        self.menu = []             # used by the default view layout'
p115
sI410
S'        self.files = []            # used by web2py_ajax.html'
p116
sI411
S'        self._vars = None'
p117
sI412
S'        self._caller = lambda f: f()'
p118
sI413
S'        self._view_environment = None'
p119
sI414
S'        self._custom_commit = None'
p120
sI415
S'        self._custom_rollback = None'
p121
ssg87
S'(f=<function comment>)'
p122
sg89
S'<lambda>'
p123
sa(dp124
g66
S'C:\\Users\\ANSHUL BASIA\\Desktop\\ACAD\\Sem4\\cop290\\web2py\\applications\\reddit_clone\\controllers\\default.py'
p125
sg68
(dp126
S'form'
p127
g109
sS'global SQLFORM'
p128
S"<class 'gluon.sqlhtml.SQLFORM'>"
p129
sS'db.comm'
p130
S'<Table comm (id,post,parent_comm,votes,body,is_a...e,created_on,created_by,modified_on,modified_by)>'
p131
sS').process'
p132
g109
sS'builtinnext'
p133
S'<built-in function next>'
p134
sS'global db'
p135
S'<DAL uri="sqlite://storage.sqlite">'
p136
ssg74
I39
sg75
(dp137
I34
S"    form=SQLFORM(db.post,id).process(next='view_post/[id]')"
p138
sI35
S'    return locals()'
p139
sI36
S''
sI37
S'def comment():'
p140
sI38
S'    id=request.args(0,cast=int)'
p141
sI39
S"    form=SQLFORM(db.comm).process(next='view_post/[id]')"
p142
sI40
S'    return locals()'
p143
sI41
S''
sI42
S''
sI43
S''
ssg87
S'()'
p144
sg89
S'comment'
p145
sa(dp146
g66
S'C:\\Users\\ANSHUL BASIA\\Desktop\\ACAD\\Sem4\\cop290\\web2py\\gluon\\html.py'
p147
sg68
(dp148
S'self'
p149
S'<gluon.sqlhtml.SQLFORM object>'
p150
sS'self.validate'
p151
S'<bound method SQLFORM.validate of <gluon.sqlhtml.SQLFORM object>>'
p152
sS'kwargs'
p153
S"{'dbio': True, 'next': 'view_post/[id]'}"
p154
ssg74
I2304
sg75
(dp155
I2304
S'        self.validate(**kwargs)'
p156
sI2305
S'        return self'
p157
sI2306
S''
sI2307
S'    REDIRECT_JS = "window.location=\'%s\';return false"'
p158
sI2308
S''
sI2299
S''
sI2300
S''
sI2301
S'        """'
p159
sI2302
S"        kwargs['dbio'] = kwargs.get('dbio', True)"
p160
sI2303
S'                                    # necessary for SQLHTML forms'
p161
ssg87
S"(self=<gluon.sqlhtml.SQLFORM object>, **kwargs={'dbio': True, 'next': 'view_post/[id]'})"
p162
sg89
S'process'
p163
sa(dp164
g66
S'C:\\Users\\ANSHUL BASIA\\Desktop\\ACAD\\Sem4\\cop290\\web2py\\gluon\\html.py'
p165
sg68
(dp166
S'self'
p167
S'<gluon.sqlhtml.SQLFORM object>'
p168
sS'self.accepts'
p169
S'<bound method SQLFORM.accepts of <gluon.sqlhtml.SQLFORM object>>'
p170
sS'kwargs'
p171
S"{'dbio': True, 'request_vars': <Storage {'body': 'f', 'votes': '', '_formname':...c5a-9ba1-4101-af39-a684c431fac3', 'post': 'ref'}>, 'session': <Storage {'_formkey[catagory/create]': ['ee72c9e...884c1', 'cdb2187e-9bc1-4f4d-a18e-4ca0fcfd9f34']}>}"
p172
ssg74
I2241
sg75
(dp173
I2240
S''
sI2241
S'        if self.accepts(**kwargs):'
p174
sI2242
S"            if onsuccess == 'flash':"
p175
sI2243
S'                if next:'
p176
sI2244
S'                    current.session.flash = message_onsuccess'
p177
sI2245
S'                else:'
p178
sI2236
S"        for key in ('message_onsuccess', 'message_onfailure', 'onsuccess',"
p179
sI2237
S"                    'onfailure', 'next', 'message_onchange', 'onchange'):"
p180
sI2238
S'            if key in kwargs:'
p181
sI2239
S'                del kwargs[key]'
p182
ssg87
S"(self=<gluon.sqlhtml.SQLFORM object>, **kwargs={'dbio': True, 'request_vars': <Storage {'body': 'f', 'votes': '', '_formname':...c5a-9ba1-4101-af39-a684c431fac3', 'post': 'ref'}>, 'session': <Storage {'_formkey[catagory/create]': ['ee72c9e...884c1', 'cdb2187e-9bc1-4f4d-a18e-4ca0fcfd9f34']}>})"
p183
sg89
S'validate'
p184
sa(dp185
g66
S'C:\\Users\\ANSHUL BASIA\\Desktop\\ACAD\\Sem4\\cop290\\web2py\\gluon\\sqlhtml.py'
p186
sg68
(dp187
S'self.vars.id'
p188
S'None'
p189
sS'fields'
p190
S"{'body': 'f', 'created_by': <function lazy_user>, 'created_on': datetime.datetime(2016, 3, 3, 2, 52, 50, 633000), 'is_active': True, 'parent_comm': None, 'post': 0, 'votes': None}"
p191
sS'self'
p192
S'<gluon.sqlhtml.SQLFORM object>'
p193
sS'self.vars'
p194
S"<Storage {'parent_comm': '', 'body': 'f', 'post': 'ref', 'votes': None}>"
p195
sS'self.table.insert'
p196
S'<bound method Table.insert of <Table comm (id,po...,created_on,created_by,modified_on,modified_by)>>'
p197
sS'self.table'
p198
S'<Table comm (id,post,parent_comm,votes,body,is_a...e,created_on,created_by,modified_on,modified_by)>'
p199
ssg74
I1722
sg75
(dp200
I1717
S'                    self.vars.id = self.record[self.id_field_name]'
p201
sI1718
S'                    if fields:'
p202
sI1719
S'                        self.table._db(self.table._id == self.record['
p203
sI1720
S'                                       self.id_field_name]).update(**fields)'
p204
sI1721
S'                else:'
p205
sI1722
S'                    self.vars.id = self.table.insert(**fields)'
p206
sI1723
S'        self.accepted = ret'
p207
sI1724
S'        return ret'
p208
sI1725
S''
sI1726
S'    AUTOTYPES = {'
p209
ssg87
S"(self=<gluon.sqlhtml.SQLFORM object>, request_vars=<Storage {'body': 'f', 'votes': '', '_formname':...c5a-9ba1-4101-af39-a684c431fac3', 'post': 'ref'}>, session=<Storage {'_formkey[catagory/create]': ['ee72c9e...884c1', 'cdb2187e-9bc1-4f4d-a18e-4ca0fcfd9f34']}>, formname='comm/create', keepvalues=False, onvalidation=None, dbio=True, hideerror=False, detect_record_change=False, **kwargs={})"
p210
sg89
S'accepts'
p211
sa(dp212
g66
S'C:\\Users\\ANSHUL BASIA\\Desktop\\ACAD\\Sem4\\cop290\\web2py\\gluon\\packages\\dal\\pydal\\objects.py'
p213
sg68
(dp214
S'self._listify'
p215
S'<bound method Table._listify of <Table comm (id,...,created_on,created_by,modified_on,modified_by)>>'
p216
sS'fields'
p217
S"{'body': 'f', 'created_by': <function lazy_user>, 'created_on': datetime.datetime(2016, 3, 3, 2, 52, 50, 633000), 'is_active': True, 'modified_by': <function lazy_user>, 'modified_on': datetime.datetime(2016, 3, 3, 2, 52, 50, 633000), 'parent_comm': None, 'post': 0, 'votes': None}"
p218
sS'self'
p219
S'<Table comm (id,post,parent_comm,votes,body,is_a...e,created_on,created_by,modified_on,modified_by)>'
p220
sS'ret'
p221
g109
sS'self._db._adapter'
p222
S'<pydal.adapters.sqlite.SQLiteAdapter object>'
p223
sS'self._db._adapter.insert'
p224
S'<bound method SQLiteAdapter.insert of <pydal.adapters.sqlite.SQLiteAdapter object>>'
p225
sS'self._db'
p226
S'<DAL uri="sqlite://storage.sqlite">'
p227
ssg74
I731
sg75
(dp228
I726
S'    def insert(self, **fields):'
p229
sI727
S'        fields = self._defaults(fields)'
p230
sI728
S'        self._attempt_upload(fields)'
p231
sI729
S'        if any(f(fields) for f in self._before_insert):'
p232
sI730
S'            return 0'
p233
sI731
S'        ret = self._db._adapter.insert(self, self._listify(fields))'
p234
sI732
S'        if ret and self._after_insert:'
p235
sI733
S'            fields = Row(fields)'
p236
sI734
S'            [f(fields, ret) for f in self._after_insert]'
p237
sI735
S'        return ret'
p238
ssg87
S"(self=<Table comm (id,post,parent_comm,votes,body,is_a...e,created_on,created_by,modified_on,modified_by)>, **fields={'body': 'f', 'created_by': <function lazy_user>, 'created_on': datetime.datetime(2016, 3, 3, 2, 52, 50, 633000), 'is_active': True, 'modified_by': <function lazy_user>, 'modified_on': datetime.datetime(2016, 3, 3, 2, 52, 50, 633000), 'parent_comm': None, 'post': 0, 'votes': None})"
p239
sg89
S'insert'
p240
sa(dp241
g66
S'C:\\Users\\ANSHUL BASIA\\Desktop\\ACAD\\Sem4\\cop290\\web2py\\gluon\\packages\\dal\\pydal\\adapters\\base.py'
p242
sg68
(dp243
S'e'
S"IntegrityError('foreign key constraint failed',)"
p244
ssg74
I746
sg75
(dp245
I741
S'            self.execute(query)'
p246
sI742
S'        except Exception:'
p247
sI743
S'            e = sys.exc_info()[1]'
p248
sI744
S"            if hasattr(table,'_on_insert_error'):"
p249
sI745
S'                return table._on_insert_error(table,fields,e)'
p250
sI746
S'            raise e'
p251
sI747
S"        if hasattr(table, '_primarykey'):"
p252
sI748
S'            mydict = dict([(k[0].name, k[1]) for k in fields if k[0].name in table._primarykey])'
p253
sI749
S'            if mydict != {}:'
p254
sI750
S'                return mydict'
p255
ssg87
S"(self=<pydal.adapters.sqlite.SQLiteAdapter object>, table=<Table comm (id,post,parent_comm,votes,body,is_a...e,created_on,created_by,modified_on,modified_by)>, fields=[(<pydal.objects.Field object>, 'f'), (<pydal.objects.Field object>, None), (<pydal.objects.Field object>, <function lazy_user>), (<pydal.objects.Field object>, True), (<pydal.objects.Field object>, <function lazy_user>), (<pydal.objects.Field object>, None), (<pydal.objects.Field object>, datetime.datetime(2016, 3, 3, 2, 52, 50, 633000)), (<pydal.objects.Field object>, datetime.datetime(2016, 3, 3, 2, 52, 50, 633000)), (<pydal.objects.Field object>, 0)])"
p256
sg89
g240
sasS'pyver'
p257
S'Python 2.7.9: C:\\Users\\ANSHUL BASIA\\Desktop\\ACAD\\Sem4\\cop290\\web2py\\web2py.exe (prefix: C:\\Python27)'
p258
sS'session'
p259
g61
(S's\xee\x08\x00\x00<div><table><tr><td style="font-weight:bold;vertical-align:top;">auth</td><td style="vertical-align:top;">:</td><td><div><table><tr><td style="font-weight:bold;vertical-align:top;">expiration</td><td style="vertical-align:top;">:</td><td><div>3600</div></td></tr><tr><td style="font-weight:bold;vertical-align:top;">hmac_key</td><td style="vertical-align:top;">:</td><td><div>25e60ee5-c686-4f23-8f73-340aca87f86a</div></td></tr><tr><td style="font-weight:bold;vertical-align:top;">last_visit</td><td style="vertical-align:top;">:</td><td><div>datetime.datetime(2016, 3, 3, 2, 52, 2, 299000)</div></td></tr><tr><td style="font-weight:bold;vertical-align:top;">remember_me</td><td style="vertical-align:top;">:</td><td><div>False</div></td></tr><tr><td style="font-weight:bold;vertical-align:top;">user</td><td style="vertical-align:top;">:</td><td><div><table><tr><td style="font-weight:bold;vertical-align:top;">email</td><td style="vertical-align:top;">:</td><td><div>anshul.dbgt@gmail.com</div></td></tr><tr><td style="font-weight:bold;vertical-align:top;">first_name</td><td style="vertical-align:top;">:</td><td><div>Anshul</div></td></tr><tr><td style="font-weight:bold;vertical-align:top;">id</td><td style="vertical-align:top;">:</td><td><div>101L</div></td></tr><tr><td style="font-weight:bold;vertical-align:top;">last_name</td><td style="vertical-align:top;">:</td><td><div>Basia</div></td></tr><tr><td style="font-weight:bold;vertical-align:top;">registration_id</td><td style="vertical-align:top;">:</td><td><div></div></td></tr><tr><td style="font-weight:bold;vertical-align:top;">registration_key</td><td style="vertical-align:top;">:</td><td><div></div></td></tr><tr><td style="font-weight:bold;vertical-align:top;">reset_password_key</td><td style="vertical-align:top;">:</td><td><div></div></td></tr></table></div></td></tr><tr><td style="font-weight:bold;vertical-align:top;">user_groups</td><td style="vertical-align:top;">:</td><td><div><table><tr><td style="font-weight:bold;vertical-align:top;">1</td><td style="vertical-align:top;">:</td><td><div>user_101</div></td></tr></table></div></td></tr></table></div></td></tr><tr><td style="font-weight:bold;vertical-align:top;">flash</td><td style="vertical-align:top;">:</td><td><div>None</div></td></tr></table></div>'
tRp260
sS'etype'
p261
S"<class 'sqlite3.IntegrityError'>"
p262
sS'date'
p263
S'Thu Mar 03 02:52:50 2016'
p264
sS'response'
p265
g61
(S's^#\x00\x00<div><table><tr><td style="font-weight:bold;vertical-align:top;">body</td><td style="vertical-align:top;">:</td><td><div>&lt;cStringIO.StringO object at 0x0458B600&gt;</div></td></tr><tr><td style="font-weight:bold;vertical-align:top;">cookies</td><td style="vertical-align:top;">:</td><td><div><table><tr><td style="font-weight:bold;vertical-align:top;">session_id_reddit_clone</td><td style="vertical-align:top;">:</td><td><div>127.0.0.1-2e65d946-5784-418a-88f2-ceeccac94d3f<table><tr><td style="font-weight:bold;vertical-align:top;">comment</td><td style="vertical-align:top;">:</td><td><div></div></td></tr><tr><td style="font-weight:bold;vertical-align:top;">domain</td><td style="vertical-align:top;">:</td><td><div></div></td></tr><tr><td style="font-weight:bold;vertical-align:top;">expires</td><td style="vertical-align:top;">:</td><td><div></div></td></tr><tr><td style="font-weight:bold;vertical-align:top;">httponly</td><td style="vertical-align:top;">:</td><td><div></div></td></tr><tr><td style="font-weight:bold;vertical-align:top;">max-age</td><td style="vertical-align:top;">:</td><td><div></div></td></tr><tr><td style="font-weight:bold;vertical-align:top;">path</td><td style="vertical-align:top;">:</td><td><div>/</div></td></tr><tr><td style="font-weight:bold;vertical-align:top;">secure</td><td style="vertical-align:top;">:</td><td><div></div></td></tr><tr><td style="font-weight:bold;vertical-align:top;">version</td><td style="vertical-align:top;">:</td><td><div></div></td></tr></table></div></td></tr></table></div></td></tr><tr><td style="font-weight:bold;vertical-align:top;">delimiters</td><td style="vertical-align:top;">:</td><td><div><table><tr><td><div>{{</div></td></tr><tr><td><div>}}</div></td></tr></table></div></td></tr><tr><td style="font-weight:bold;vertical-align:top;">files</td><td style="vertical-align:top;">:</td><td><div><table></table></div></td></tr><tr><td style="font-weight:bold;vertical-align:top;">flash</td><td style="vertical-align:top;">:</td><td><div></div></td></tr><tr><td style="font-weight:bold;vertical-align:top;">form_label_separator</td><td style="vertical-align:top;">:</td><td><div></div></td></tr><tr><td style="font-weight:bold;vertical-align:top;">formstyle</td><td style="vertical-align:top;">:</td><td><div>bootstrap3_inline</div></td></tr><tr><td style="font-weight:bold;vertical-align:top;">generic_patterns</td><td style="vertical-align:top;">:</td><td><div><table><tr><td><div>*</div></td></tr></table></div></td></tr><tr><td style="font-weight:bold;vertical-align:top;">google_analytics_id</td><td style="vertical-align:top;">:</td><td><div>None</div></td></tr><tr><td style="font-weight:bold;vertical-align:top;">headers</td><td style="vertical-align:top;">:</td><td><div><table><tr><td style="font-weight:bold;vertical-align:top;">X-Powered-By</td><td style="vertical-align:top;">:</td><td><div>web2py</div></td></tr></table></div></td></tr><tr><td style="font-weight:bold;vertical-align:top;">logo</td><td style="vertical-align:top;">:</td><td><div><a class="navbar-brand" href="http://www.web2py.com/" id="web2py-logo"><b>Complaints</b>&trade;&nbsp;</a></div></td></tr><tr><td style="font-weight:bold;vertical-align:top;">menu</td><td style="vertical-align:top;">:</td><td><div><table><tr><td><div><table><tr><td><div>Home</div></td></tr><tr><td><div>False</div></td></tr><tr><td><div>/reddit_clone/default/index</div></td></tr><tr><td><div><table></table></div></td></tr></table></div></td></tr><tr><td><div><table><tr><td><div>Maintenance</div></td></tr><tr><td><div>False</div></td></tr><tr><td><div>/reddit_clone/default/list_posts_by_votes/Maintenance</div></td></tr></table></div></td></tr><tr><td><div><table><tr><td><div>Theft</div></td></tr><tr><td><div>False</div></td></tr><tr><td><div>/reddit_clone/default/list_posts_by_votes/Theft</div></td></tr></table></div></td></tr><tr><td><div><table><tr><td><div>Acadamics</div></td></tr><tr><td><div>False</div></td></tr><tr><td><div>/reddit_clone/default/list_posts_by_votes/Acadamics</div></td></tr></table></div></td></tr><tr><td><div><table><tr><td><div>Food</div></td></tr><tr><td><div>False</div></td></tr><tr><td><div>/reddit_clone/default/list_posts_by_votes/Food</div></td></tr></table></div></td></tr><tr><td><div><table><tr><td><div>Code_Of_Conduct</div></td></tr><tr><td><div>False</div></td></tr><tr><td><div>/reddit_clone/default/list_posts_by_votes/Code_of_conduct</div></td></tr></table></div></td></tr><tr><td><div><table><tr><td><div>Food</div></td></tr><tr><td><div>False</div></td></tr><tr><td><div>/reddit_clone/default/list_posts_by_votes/food</div></td></tr></table></div></td></tr><tr><td><div><table><tr><td><div>Cataag</div></td></tr><tr><td><div>False</div></td></tr><tr><td><div>/reddit_clone/default/list_posts_by_votes/cataag</div></td></tr></table></div></td></tr></table></div></td></tr><tr><td style="font-weight:bold;vertical-align:top;">meta</td><td style="vertical-align:top;">:</td><td><div><table><tr><td style="font-weight:bold;vertical-align:top;">author</td><td style="vertical-align:top;">:</td><td><div>Your Name &lt;you@example.com&gt;</div></td></tr><tr><td style="font-weight:bold;vertical-align:top;">description</td><td style="vertical-align:top;">:</td><td><div>a cool new app</div></td></tr><tr><td style="font-weight:bold;vertical-align:top;">generator</td><td style="vertical-align:top;">:</td><td><div>Web2py Web Framework</div></td></tr><tr><td style="font-weight:bold;vertical-align:top;">keywords</td><td style="vertical-align:top;">:</td><td><div>web2py, python, framework</div></td></tr></table></div></td></tr><tr><td style="font-weight:bold;vertical-align:top;">models_to_run</td><td style="vertical-align:top;">:</td><td><div><table><tr><td><div>^\\w+\\.py$</div></td></tr><tr><td><div>^default/\\w+\\.py$</div></td></tr><tr><td><div>^default/comment/\\w+\\.py$</div></td></tr></table></div></td></tr><tr><td style="font-weight:bold;vertical-align:top;">postprocessing</td><td style="vertical-align:top;">:</td><td><div><table></table></div></td></tr><tr><td style="font-weight:bold;vertical-align:top;">session_client</td><td style="vertical-align:top;">:</td><td><div>127.0.0.1</div></td></tr><tr><td style="font-weight:bold;vertical-align:top;">session_cookie_compression_level</td><td style="vertical-align:top;">:</td><td><div>None</div></td></tr><tr><td style="font-weight:bold;vertical-align:top;">session_cookie_expires</td><td style="vertical-align:top;">:</td><td><div>None</div></td></tr><tr><td style="font-weight:bold;vertical-align:top;">session_cookie_key</td><td style="vertical-align:top;">:</td><td><div>None</div></td></tr><tr><td style="font-weight:bold;vertical-align:top;">session_data_name</td><td style="vertical-align:top;">:</td><td><div>session_data_reddit_clone</div></td></tr><tr><td style="font-weight:bold;vertical-align:top;">session_file</td><td style="vertical-align:top;">:</td><td><div>&lt;open file &#x27;C:\\\\Users\\\\ANSHUL BASIA\\\\Desktop\\\\ACAD\\\\Sem4\\\\cop290\\\\web2py\\\\applications\\\\reddit_clone\\\\sessions\\\\165\\\\0c1\\\\127.0.0.1-2e65d946-5784-418a-88f2-ceeccac94d3f&#x27;, mode &#x27;rb+&#x27; at 0x03A0B7B0&gt;</div></td></tr><tr><td style="font-weight:bold;vertical-align:top;">session_filename</td><td style="vertical-align:top;">:</td><td><div>C:\\Users\\ANSHUL BASIA\\Desktop\\ACAD\\Sem4\\cop290\\web2py\\applications\\reddit_clone\\sessions\\127.0.0.1-2e65d946-5784-418a-88f2-ceeccac94d3f</div></td></tr><tr><td style="font-weight:bold;vertical-align:top;">session_hash</td><td style="vertical-align:top;">:</td><td><div>9a6dd95c5341f2dcac3fd2cb09cb720e</div></td></tr><tr><td style="font-weight:bold;vertical-align:top;">session_id</td><td style="vertical-align:top;">:</td><td><div>127.0.0.1-2e65d946-5784-418a-88f2-ceeccac94d3f</div></td></tr><tr><td style="font-weight:bold;vertical-align:top;">session_id_name</td><td style="vertical-align:top;">:</td><td><div>session_id_reddit_clone</div></td></tr><tr><td style="font-weight:bold;vertical-align:top;">session_locked</td><td style="vertical-align:top;">:</td><td><div>True</div></td></tr><tr><td style="font-weight:bold;vertical-align:top;">session_masterapp</td><td style="vertical-align:top;">:</td><td><div>reddit_clone</div></td></tr><tr><td style="font-weight:bold;vertical-align:top;">session_new</td><td style="vertical-align:top;">:</td><td><div>False</div></td></tr><tr><td style="font-weight:bold;vertical-align:top;">session_storage_type</td><td style="vertical-align:top;">:</td><td><div>file</div></td></tr><tr><td style="font-weight:bold;vertical-align:top;">status</td><td style="vertical-align:top;">:</td><td><div>200</div></td></tr><tr><td style="font-weight:bold;vertical-align:top;">subtitle</td><td style="vertical-align:top;">:</td><td><div></div></td></tr><tr><td style="font-weight:bold;vertical-align:top;">title</td><td style="vertical-align:top;">:</td><td><div>Reddit Clone</div></td></tr><tr><td style="font-weight:bold;vertical-align:top;">view</td><td style="vertical-align:top;">:</td><td><div>default/comment.html</div></td></tr></table></div>'
tRp266
sS'locals'
p267
(dp268
S'fields'
p269
S"[(<pydal.objects.Field object>, 'f'), (<pydal.objects.Field object>, None), (<pydal.objects.Field object>, <function lazy_user>), (<pydal.objects.Field object>, True), (<pydal.objects.Field object>, <function lazy_user>), (<pydal.objects.Field object>, None), (<pydal.objects.Field object>, datetime.datetime(2016, 3, 3, 2, 52, 50, 633000)), (<pydal.objects.Field object>, datetime.datetime(2016, 3, 3, 2, 52, 50, 633000)), (<pydal.objects.Field object>, 0)]"
p270
sS'self'
p271
S'<pydal.adapters.sqlite.SQLiteAdapter object>'
p272
sS'e'
S"IntegrityError('foreign key constraint failed',)"
p273
sS'table'
p274
S'<Table comm (id,post,parent_comm,votes,body,is_a...e,created_on,created_by,modified_on,modified_by)>'
p275
sS'query'
p276
S'"INSERT INTO comm(body,votes,modified_by,is_activ...L,\'2016-03-03 02:52:50\',\'2016-03-03 02:52:50\',0);"'
p277
sssS'traceback'
p278
S'Traceback (most recent call last):\n  File "C:\\Users\\ANSHUL BASIA\\Desktop\\ACAD\\Sem4\\cop290\\web2py\\gluon\\restricted.py", line 227, in restricted\n    exec ccode in environment\n  File "C:\\Users\\ANSHUL BASIA\\Desktop\\ACAD\\Sem4\\cop290\\web2py\\applications\\reddit_clone\\controllers/default.py", line 135, in <module>\n  File "C:\\Users\\ANSHUL BASIA\\Desktop\\ACAD\\Sem4\\cop290\\web2py\\gluon\\globals.py", line 412, in <lambda>\n    self._caller = lambda f: f()\n  File "C:\\Users\\ANSHUL BASIA\\Desktop\\ACAD\\Sem4\\cop290\\web2py\\applications\\reddit_clone\\controllers/default.py", line 39, in comment\n    form=SQLFORM(db.comm).process(next=\'view_post/[id]\')\n  File "C:\\Users\\ANSHUL BASIA\\Desktop\\ACAD\\Sem4\\cop290\\web2py\\gluon\\html.py", line 2304, in process\n    self.validate(**kwargs)\n  File "C:\\Users\\ANSHUL BASIA\\Desktop\\ACAD\\Sem4\\cop290\\web2py\\gluon\\html.py", line 2241, in validate\n    if self.accepts(**kwargs):\n  File "C:\\Users\\ANSHUL BASIA\\Desktop\\ACAD\\Sem4\\cop290\\web2py\\gluon\\sqlhtml.py", line 1722, in accepts\n    self.vars.id = self.table.insert(**fields)\n  File "C:\\Users\\ANSHUL BASIA\\Desktop\\ACAD\\Sem4\\cop290\\web2py\\gluon\\packages\\dal\\pydal\\objects.py", line 731, in insert\n    ret = self._db._adapter.insert(self, self._listify(fields))\n  File "C:\\Users\\ANSHUL BASIA\\Desktop\\ACAD\\Sem4\\cop290\\web2py\\gluon\\packages\\dal\\pydal\\adapters\\base.py", line 746, in insert\n    raise e\nIntegrityError: foreign key constraint failed\n'
p279
s.