(dp1
S'output'
p2
S"<class 'sqlite3.IntegrityError'> foreign key constraint failed"
p3
sS'layer'
p4
S'C:\\Users\\ANSHUL BASIA\\Desktop\\ACAD\\Sem4\\cop290\\web2py\\applications\\Backend_for_Complaints\\controllers/api.py'
p5
sS'code'
p6
S'@request.restful()\ndef get_post():\n    def GET(id):\n        post=db.post(id)\n        return post.as_dict() if post else None\n    return locals()\n\ndef add_complaint():\n    if auth.is_logged_in():\n        #idm=int(request.vars["id"])\n        #user=db.users(idm)\n        db.post.insert(\n        catagory=str(request.vars["catagory"]),\n        complaint_level=int(request.vars["complaint_level"]),\n        title=str(request.vars["title"]),\n        Resolved=str(request.vars["resolved"]),\n        body=str(request.vars["body"]),\n        votes=0\n        #posted_by=user\n        )\n        return user\n\ndef set_resolved():\n    if auth.is_logged_in():\n        id = int(request.vars["id"])\n        sta = str(request.vars["status"])\n        post=db.post(id)\n        if post:\n            post.update_record(Resolved=sta)\n            return dict(success=True,post=post)\n    return locals()\n\ndef up_downvote():\n    if auth.is_logged_in():\n        id = int(request.vars["id"])\n        vote = int(request.vars["vote"])\n        post=db.post(id)\n        if post:\n            post.update_record(votes=post.votes+vote)\n            return dict(success=True,post=post)\n    return id\n@request.restful()\ndef post():\n    def GET(*args,**vars):\n        patterns=[\'/{post.complaint_level}\',\n                 \'/catagory/id/{catagory.id}\',\n                 \'/by-user/{post.created_by}\']\n        parsed=db.parse_as_rest(patterns,args,vars)\n        if parsed.status==200:return dict(content=parsed.response)\n        raise HTTP(parsed.status,parsed.error)\n    #def POST(catagory,title,resolved,url,body,votes):\n        #return db.post.validate_and_insert(catagory=catagory,title=title,resolved=resolved,url=url if url else None,body=body,votes=votes)\n    return locals()\n@request.restful()\ndef auto():\n    def GET(*args,**vars):\n        parsed=db.parse_as_rest(\'auto\',args,vars)\n        if parsed.status==200:return dict(content=parsed.response)\n        raise HTTP(parsed.status,parsed.error)\n    return locals()\n\nresponse._vars=response._caller(add_complaint)\n'
p7
sS'snapshot'
p8
(dp9
S'exception'
p10
(dp11
S'__module__'
p12
S"'sqlite3'"
p13
sS'__getslice__'
p14
S"<method-wrapper '__getslice__' of IntegrityError object>"
p15
sS'__str__'
p16
S"<method-wrapper '__str__' of IntegrityError object>"
p17
sS'__reduce__'
p18
S'<built-in method __reduce__ of IntegrityError object>'
p19
sS'__dict__'
p20
S'{}'
p21
sS'__sizeof__'
p22
S'<built-in method __sizeof__ of IntegrityError object>'
p23
sS'__weakref__'
p24
S'None'
p25
sS'__init__'
p26
S"<method-wrapper '__init__' of IntegrityError object>"
p27
sS'__setattr__'
p28
S"<method-wrapper '__setattr__' of IntegrityError object>"
p29
sS'__reduce_ex__'
p30
S'<built-in method __reduce_ex__ of IntegrityError object>'
p31
sS'__new__'
p32
S'<built-in method __new__ of type object>'
p33
sS'__format__'
p34
S'<built-in method __format__ of IntegrityError object>'
p35
sS'__class__'
p36
S"<class 'sqlite3.IntegrityError'>"
p37
sS'__doc__'
p38
S'None'
p39
sS'__getitem__'
p40
S"<method-wrapper '__getitem__' of IntegrityError object>"
p41
sS'__setstate__'
p42
S'<built-in method __setstate__ of IntegrityError object>'
p43
sS'__getattribute__'
p44
S"<method-wrapper '__getattribute__' of IntegrityError object>"
p45
sS'args'
p46
S"('foreign key constraint failed',)"
p47
sS'__subclasshook__'
p48
S'<built-in method __subclasshook__ of type object>'
p49
sS'__unicode__'
p50
S'<built-in method __unicode__ of IntegrityError object>'
p51
sS'__delattr__'
p52
S"<method-wrapper '__delattr__' of IntegrityError object>"
p53
sS'__repr__'
p54
S"<method-wrapper '__repr__' of IntegrityError object>"
p55
sS'__hash__'
p56
S"<method-wrapper '__hash__' of IntegrityError object>"
p57
ssS'evalue'
p58
S'foreign key constraint failed'
p59
sS'request'
p60
cgluon.html
XML_unpickle
p61
(S's\xcfg\x00\x00<div><table><tr><td style="font-weight:bold;vertical-align:top;">ajax</td><td style="vertical-align:top;">:</td><td><div>False</div></td></tr><tr><td style="font-weight:bold;vertical-align:top;">application</td><td style="vertical-align:top;">:</td><td><div>Backend_for_Complaints</div></td></tr><tr><td style="font-weight:bold;vertical-align:top;">args</td><td style="vertical-align:top;">:</td><td><div><table></table></div></td></tr><tr><td style="font-weight:bold;vertical-align:top;">cid</td><td style="vertical-align:top;">:</td><td><div>None</div></td></tr><tr><td style="font-weight:bold;vertical-align:top;">client</td><td style="vertical-align:top;">:</td><td><div>127.0.0.1</div></td></tr><tr><td style="font-weight:bold;vertical-align:top;">controller</td><td style="vertical-align:top;">:</td><td><div>api</div></td></tr><tr><td style="font-weight:bold;vertical-align:top;">cookies</td><td style="vertical-align:top;">:</td><td><div><table><tr><td style="font-weight:bold;vertical-align:top;">session_id_admin</td><td style="vertical-align:top;">:</td><td><div>127.0.0.1-400d191a-0144-4338-8b2b-6c42e1c459cf<table><tr><td style="font-weight:bold;vertical-align:top;">comment</td><td style="vertical-align:top;">:</td><td><div></div></td></tr><tr><td style="font-weight:bold;vertical-align:top;">domain</td><td style="vertical-align:top;">:</td><td><div></div></td></tr><tr><td style="font-weight:bold;vertical-align:top;">expires</td><td style="vertical-align:top;">:</td><td><div></div></td></tr><tr><td style="font-weight:bold;vertical-align:top;">httponly</td><td style="vertical-align:top;">:</td><td><div></div></td></tr><tr><td style="font-weight:bold;vertical-align:top;">max-age</td><td style="vertical-align:top;">:</td><td><div></div></td></tr><tr><td style="font-weight:bold;vertical-align:top;">path</td><td style="vertical-align:top;">:</td><td><div></div></td></tr><tr><td style="font-weight:bold;vertical-align:top;">secure</td><td style="vertical-align:top;">:</td><td><div></div></td></tr><tr><td style="font-weight:bold;vertical-align:top;">version</td><td style="vertical-align:top;">:</td><td><div></div></td></tr></table></div></td></tr><tr><td style="font-weight:bold;vertical-align:top;">session_id_backend_for_complaints</td><td style="vertical-align:top;">:</td><td><div>127.0.0.1-2b757fab-518c-4226-be7f-1e58e9f71cc4<table><tr><td style="font-weight:bold;vertical-align:top;">comment</td><td style="vertical-align:top;">:</td><td><div></div></td></tr><tr><td style="font-weight:bold;vertical-align:top;">domain</td><td style="vertical-align:top;">:</td><td><div></div></td></tr><tr><td style="font-weight:bold;vertical-align:top;">expires</td><td style="vertical-align:top;">:</td><td><div></div></td></tr><tr><td style="font-weight:bold;vertical-align:top;">httponly</td><td style="vertical-align:top;">:</td><td><div></div></td></tr><tr><td style="font-weight:bold;vertical-align:top;">max-age</td><td style="vertical-align:top;">:</td><td><div></div></td></tr><tr><td style="font-weight:bold;vertical-align:top;">path</td><td style="vertical-align:top;">:</td><td><div></div></td></tr><tr><td style="font-weight:bold;vertical-align:top;">secure</td><td style="vertical-align:top;">:</td><td><div></div></td></tr><tr><td style="font-weight:bold;vertical-align:top;">version</td><td style="vertical-align:top;">:</td><td><div></div></td></tr></table></div></td></tr><tr><td style="font-weight:bold;vertical-align:top;">session_id_moodleplus</td><td style="vertical-align:top;">:</td><td><div>127.0.0.1-71d62af8-64ce-4ea0-9d56-d806cba069c6<table><tr><td style="font-weight:bold;vertical-align:top;">comment</td><td style="vertical-align:top;">:</td><td><div></div></td></tr><tr><td style="font-weight:bold;vertical-align:top;">domain</td><td style="vertical-align:top;">:</td><td><div></div></td></tr><tr><td style="font-weight:bold;vertical-align:top;">expires</td><td style="vertical-align:top;">:</td><td><div></div></td></tr><tr><td style="font-weight:bold;vertical-align:top;">httponly</td><td style="vertical-align:top;">:</td><td><div></div></td></tr><tr><td style="font-weight:bold;vertical-align:top;">max-age</td><td style="vertical-align:top;">:</td><td><div></div></td></tr><tr><td style="font-weight:bold;vertical-align:top;">path</td><td style="vertical-align:top;">:</td><td><div></div></td></tr><tr><td style="font-weight:bold;vertical-align:top;">secure</td><td style="vertical-align:top;">:</td><td><div></div></td></tr><tr><td style="font-weight:bold;vertical-align:top;">version</td><td style="vertical-align:top;">:</td><td><div></div></td></tr></table></div></td></tr><tr><td style="font-weight:bold;vertical-align:top;">session_id_welcome</td><td style="vertical-align:top;">:</td><td><div>127.0.0.1-0f57198e-26ed-4648-8f86-a738b714f898<table><tr><td style="font-weight:bold;vertical-align:top;">comment</td><td style="vertical-align:top;">:</td><td><div></div></td></tr><tr><td style="font-weight:bold;vertical-align:top;">domain</td><td style="vertical-align:top;">:</td><td><div></div></td></tr><tr><td style="font-weight:bold;vertical-align:top;">expires</td><td style="vertical-align:top;">:</td><td><div></div></td></tr><tr><td style="font-weight:bold;vertical-align:top;">httponly</td><td style="vertical-align:top;">:</td><td><div></div></td></tr><tr><td style="font-weight:bold;vertical-align:top;">max-age</td><td style="vertical-align:top;">:</td><td><div></div></td></tr><tr><td style="font-weight:bold;vertical-align:top;">path</td><td style="vertical-align:top;">:</td><td><div></div></td></tr><tr><td style="font-weight:bold;vertical-align:top;">secure</td><td style="vertical-align:top;">:</td><td><div></div></td></tr><tr><td style="font-weight:bold;vertical-align:top;">version</td><td style="vertical-align:top;">:</td><td><div></div></td></tr></table></div></td></tr></table></div></td></tr><tr><td style="font-weight:bold;vertical-align:top;">env</td><td style="vertical-align:top;">:</td><td><div><table><tr><td style="font-weight:bold;vertical-align:top;">HTTP_ACCEPT</td><td style="vertical-align:top;">:</td><td><div>text/html,application/xhtml+xml,application/xml;q=0.9,image/webp,*/*;q=0.8</div></td></tr><tr><td style="font-weight:bold;vertical-align:top;">HTTP_ACCEPT_ENCODING</td><td style="vertical-align:top;">:</td><td><div>gzip, deflate, sdch</div></td></tr><tr><td style="font-weight:bold;vertical-align:top;">HTTP_ACCEPT_LANGUAGE</td><td style="vertical-align:top;">:</td><td><div>en,hi;q=0.8,en-US;q=0.6</div></td></tr><tr><td style="font-weight:bold;vertical-align:top;">HTTP_CACHE_CONTROL</td><td style="vertical-align:top;">:</td><td><div>max-age=0</div></td></tr><tr><td style="font-weight:bold;vertical-align:top;">HTTP_CONNECTION</td><td style="vertical-align:top;">:</td><td><div>keep-alive</div></td></tr><tr><td style="font-weight:bold;vertical-align:top;">HTTP_COOKIE</td><td style="vertical-align:top;">:</td><td><div>session_id_welcome=127.0.0.1-0f57198e-26ed-4648-8f86-a738b714f898; session_id_moodleplus=127.0.0.1-71d62af8-64ce-4ea0-9d56-d806cba069c6; session_id_backend_for_complaints=127.0.0.1-2b757fab-518c-4226-be7f-1e58e9f71cc4; session_id_admin=127.0.0.1-400d191a-0144-4338-8b2b-6c42e1c459cf</div></td></tr><tr><td style="font-weight:bold;vertical-align:top;">HTTP_HOST</td><td style="vertical-align:top;">:</td><td><div>127.0.0.1:8000</div></td></tr><tr><td style="font-weight:bold;vertical-align:top;">HTTP_UPGRADE_INSECURE_REQUESTS</td><td style="vertical-align:top;">:</td><td><div>1</div></td></tr><tr><td style="font-weight:bold;vertical-align:top;">HTTP_USER_AGENT</td><td style="vertical-align:top;">:</td><td><div>Mozilla/5.0 (Windows NT 10.0; WOW64) AppleWebKit/537.36 (KHTML, like Gecko) Chrome/49.0.2623.87 Safari/537.36</div></td></tr><tr><td style="font-weight:bold;vertical-align:top;">PATH_INFO</td><td style="vertical-align:top;">:</td><td><div>/Backend_for_Complaints/api/add_complaint.json</div></td></tr><tr><td style="font-weight:bold;vertical-align:top;">QUERY_STRING</td><td style="vertical-align:top;">:</td><td><div>catagory=maint&amp;complaint_level=1&amp;title=title&amp;resolved=false&amp;body=huh</div></td></tr><tr><td style="font-weight:bold;vertical-align:top;">REMOTE_ADDR</td><td style="vertical-align:top;">:</td><td><div>127.0.0.1</div></td></tr><tr><td style="font-weight:bold;vertical-align:top;">REMOTE_PORT</td><td style="vertical-align:top;">:</td><td><div>52879</div></td></tr><tr><td style="font-weight:bold;vertical-align:top;">REQUEST_METHOD</td><td style="vertical-align:top;">:</td><td><div>GET</div></td></tr><tr><td style="font-weight:bold;vertical-align:top;">SCRIPT_NAME</td><td style="vertical-align:top;">:</td><td><div></div></td></tr><tr><td style="font-weight:bold;vertical-align:top;">SERVER_NAME</td><td style="vertical-align:top;">:</td><td><div>ANSH_27</div></td></tr><tr><td style="font-weight:bold;vertical-align:top;">SERVER_PORT</td><td style="vertical-align:top;">:</td><td><div>8000</div></td></tr><tr><td style="font-weight:bold;vertical-align:top;">SERVER_PROTOCOL</td><td style="vertical-align:top;">:</td><td><div>HTTP/1.1</div></td></tr><tr><td style="font-weight:bold;vertical-align:top;">SERVER_SOFTWARE</td><td style="vertical-align:top;">:</td><td><div>Rocket 1.2.6</div></td></tr><tr><td style="font-weight:bold;vertical-align:top;">app_folders</td><td style="vertical-align:top;">:</td><td><div>set([&#x27;C:\\\\Users\\\\ANSHUL BASIA\\\\Desktop\\\\ACAD\\\\Sem4\\\\cop290\\\\web2py\\\\applications\\\\Backend_for_Complaints\\\\&#x27;, &#x27;C:\\\\Users\\\\ANSHUL BASIA\\\\Desktop\\\\ACAD\\\\Sem4\\\\cop290\\\\web2py\\\\applications\\\\admin\\\\&#x27;, &#x27;C:\\\\Users\\\\ANSHUL BASIA\\\\Desktop\\\\ACAD\\\\Sem4\\\\cop290\\\\web2py\\\\applications\\\\MoodlePlus\\\\&#x27;, &#x27;C:\\\\Users\\\\ANSHUL BASIA\\\\Desktop\\\\ACAD\\\\Sem4\\\\cop290\\\\web2py\\\\applications\\\\welcome\\\\&#x27;])</div></td></tr><tr><td style="font-weight:bold;vertical-align:top;">applications_parent</td><td style="vertical-align:top;">:</td><td><div>C:\\Users\\ANSHUL BASIA\\Desktop\\ACAD\\Sem4\\cop290\\web2py</div></td></tr><tr><td style="font-weight:bold;vertical-align:top;">cmd_args</td><td style="vertical-align:top;">:</td><td><div><table></table></div></td></tr><tr><td style="font-weight:bold;vertical-align:top;">cmd_options</td><td style="vertical-align:top;">:</td><td><div>&lt;Values at 0x2fb1800: {&#x27;verbose&#x27;: False, &#x27;ip&#x27;: &#x27;127.0.0.1&#x27;, &#x27;debuglevel&#x27;: 30, &#x27;with_scheduler&#x27;: False, &#x27;ips&#x27;: [&#x27;192.168.1.41&#x27;, &#x27;2001:0:9d38:6abd:3cc0:ce4:87c7:9555&#x27;, &#x27;fe80::f4e8:1a6a:a38f:c1a9%8&#x27;, &#x27;fe80::3cc0:ce4:87c7:9555%7&#x27;], &#x27;shutdown_timeout&#x27;: 5, &#x27;taskbar&#x27;: False, &#x27;with_coverage&#x27;: False, &#x27;scheduler_groups&#x27;: None, &#x27;port&#x27;: 8000, &#x27;maxthreads&#x27;: None, &#x27;softcron&#x27;: False, &#x27;server_name&#x27;: &#x27;ANSH_27&#x27;, &#x27;bpython&#x27;: False, &#x27;nogui&#x27;: False, &#x27;pid_filename&#x27;: &#x27;httpserver.pid&#x27;, &#x27;print_errors&#x27;: False, &#x27;extcron&#x27;: False, &#x27;runcron&#x27;: False, &#x27;run_system_tests&#x27;: False, &#x27;test&#x27;: None, &#x27;folder&#x27;: &#x27;C:\\\\Users\\\\ANSHUL BASIA\\\\Desktop\\\\ACAD\\\\Sem4\\\\cop290\\\\web2py&#x27;, &#x27;config&#x27;: &#x27;&#x27;, &#x27;minthreads&#x27;: None, &#x27;shell&#x27;: None, &#x27;run&#x27;: &#x27;&#x27;, &#x27;log_filename&#x27;: &#x27;httpserver.log&#x27;, &#x27;profiler_dir&#x27;: None, &#x27;args&#x27;: [&#x27;&#x27;], &#x27;socket_timeout&#x27;: 5, &#x27;ssl_ca_certificate&#x27;: None, &#x27;scheduler&#x27;: None, &#x27;interfaces&#x27;: None, &#x27;ssl_private_key&#x27;: &#x27;&#x27;, &#x27;gae&#x27;: None, &#x27;password&#x27;: &#x27;&lt;ask&gt;&#x27;, &#x27;request_queue_size&#x27;: 5, &#x27;ssl_certificate&#x27;: &#x27;&#x27;, &#x27;cronjob&#x27;: False, &#x27;numthreads&#x27;: None, &#x27;quiet&#x27;: False, &#x27;import_models&#x27;: False, &#x27;timeout&#x27;: 10, &#x27;plain&#x27;: False, &#x27;nobanner&#x27;: False}&gt;</div></td></tr><tr><td style="font-weight:bold;vertical-align:top;">db_sessions</td><td style="vertical-align:top;">:</td><td><div>set([])</div></td></tr><tr><td style="font-weight:bold;vertical-align:top;">debugging</td><td style="vertical-align:top;">:</td><td><div>True</div></td></tr><tr><td style="font-weight:bold;vertical-align:top;">gluon_parent</td><td style="vertical-align:top;">:</td><td><div>C:\\Users\\ANSHUL BASIA\\Desktop\\ACAD\\Sem4\\cop290\\web2py</div></td></tr><tr><td style="font-weight:bold;vertical-align:top;">http_accept</td><td style="vertical-align:top;">:</td><td><div>text/html,application/xhtml+xml,application/xml;q=0.9,image/webp,*/*;q=0.8</div></td></tr><tr><td style="font-weight:bold;vertical-align:top;">http_accept_encoding</td><td style="vertical-align:top;">:</td><td><div>gzip, deflate, sdch</div></td></tr><tr><td style="font-weight:bold;vertical-align:top;">http_accept_language</td><td style="vertical-align:top;">:</td><td><div>en,hi;q=0.8,en-US;q=0.6</div></td></tr><tr><td style="font-weight:bold;vertical-align:top;">http_cache_control</td><td style="vertical-align:top;">:</td><td><div>max-age=0</div></td></tr><tr><td style="font-weight:bold;vertical-align:top;">http_connection</td><td style="vertical-align:top;">:</td><td><div>keep-alive</div></td></tr><tr><td style="font-weight:bold;vertical-align:top;">http_cookie</td><td style="vertical-align:top;">:</td><td><div>session_id_welcome=127.0.0.1-0f57198e-26ed-4648-8f86-a738b714f898; session_id_moodleplus=127.0.0.1-71d62af8-64ce-4ea0-9d56-d806cba069c6; session_id_backend_for_complaints=127.0.0.1-2b757fab-518c-4226-be7f-1e58e9f71cc4; session_id_admin=127.0.0.1-400d191a-0144-4338-8b2b-6c42e1c459cf</div></td></tr><tr><td style="font-weight:bold;vertical-align:top;">http_host</td><td style="vertical-align:top;">:</td><td><div>127.0.0.1:8000</div></td></tr><tr><td style="font-weight:bold;vertical-align:top;">http_upgrade_insecure_requests</td><td style="vertical-align:top;">:</td><td><div>1</div></td></tr><tr><td style="font-weight:bold;vertical-align:top;">http_user_agent</td><td style="vertical-align:top;">:</td><td><div>Mozilla/5.0 (Windows NT 10.0; WOW64) AppleWebKit/537.36 (KHTML, like Gecko) Chrome/49.0.2623.87 Safari/537.36</div></td></tr><tr><td style="font-weight:bold;vertical-align:top;">is_jython</td><td style="vertical-align:top;">:</td><td><div>False</div></td></tr><tr><td style="font-weight:bold;vertical-align:top;">is_pypy</td><td style="vertical-align:top;">:</td><td><div>False</div></td></tr><tr><td style="font-weight:bold;vertical-align:top;">is_source</td><td style="vertical-align:top;">:</td><td><div>False</div></td></tr><tr><td style="font-weight:bold;vertical-align:top;">local_hosts</td><td style="vertical-align:top;">:</td><td><div><table><tr><td><div>ANSH_27</div></td></tr><tr><td><div>::ffff:127.0.0.1</div></td></tr><tr><td><div>::1</div></td></tr><tr><td><div>192.168.1.41</div></td></tr><tr><td><div>fe80::3cc0:ce4:87c7:9555%7</div></td></tr><tr><td><div>fe80::f4e8:1a6a:a38f:c1a9%8</div></td></tr><tr><td><div>127.0.0.1</div></td></tr><tr><td><div>2001:0:9d38:6abd:3cc0:ce4:87c7:9555</div></td></tr></table></div></td></tr><tr><td style="font-weight:bold;vertical-align:top;">path_info</td><td style="vertical-align:top;">:</td><td><div>/Backend_for_Complaints/api/add_complaint.json</div></td></tr><tr><td style="font-weight:bold;vertical-align:top;">query_string</td><td style="vertical-align:top;">:</td><td><div>catagory=maint&amp;complaint_level=1&amp;title=title&amp;resolved=false&amp;body=huh</div></td></tr><tr><td style="font-weight:bold;vertical-align:top;">remote_addr</td><td style="vertical-align:top;">:</td><td><div>127.0.0.1</div></td></tr><tr><td style="font-weight:bold;vertical-align:top;">remote_port</td><td style="vertical-align:top;">:</td><td><div>52879</div></td></tr><tr><td style="font-weight:bold;vertical-align:top;">request_method</td><td style="vertical-align:top;">:</td><td><div>GET</div></td></tr><tr><td style="font-weight:bold;vertical-align:top;">request_uri</td><td style="vertical-align:top;">:</td><td><div>/Backend_for_Complaints/api/add_complaint.json?catagory=maint&amp;complaint_level=1&amp;title=title&amp;resolved=false&amp;body=huh</div></td></tr><tr><td style="font-weight:bold;vertical-align:top;">script_name</td><td style="vertical-align:top;">:</td><td><div></div></td></tr><tr><td style="font-weight:bold;vertical-align:top;">server_name</td><td style="vertical-align:top;">:</td><td><div>ANSH_27</div></td></tr><tr><td style="font-weight:bold;vertical-align:top;">server_port</td><td style="vertical-align:top;">:</td><td><div>8000</div></td></tr><tr><td style="font-weight:bold;vertical-align:top;">server_protocol</td><td style="vertical-align:top;">:</td><td><div>HTTP/1.1</div></td></tr><tr><td style="font-weight:bold;vertical-align:top;">server_software</td><td style="vertical-align:top;">:</td><td><div>Rocket 1.2.6</div></td></tr><tr><td style="font-weight:bold;vertical-align:top;">web2py_path</td><td style="vertical-align:top;">:</td><td><div>C:\\Users\\ANSHUL BASIA\\Desktop\\ACAD\\Sem4\\cop290\\web2py</div></td></tr><tr><td style="font-weight:bold;vertical-align:top;">web2py_version</td><td style="vertical-align:top;">:</td><td><div>2.13.4-stable+timestamp.2015.12.26.04.59.39</div></td></tr><tr><td style="font-weight:bold;vertical-align:top;">wsgi.errors</td><td style="vertical-align:top;">:</td><td><div>&lt;open file &#x27;&lt;stderr&gt;&#x27;, mode &#x27;w&#x27; at 0x0224D0D0&gt;</div></td></tr><tr><td style="font-weight:bold;vertical-align:top;">wsgi.file_wrapper</td><td style="vertical-align:top;">:</td><td><div>&lt;class wsgiref.util.FileWrapper at 0x02EC80A0&gt;</div></td></tr><tr><td style="font-weight:bold;vertical-align:top;">wsgi.input</td><td style="vertical-align:top;">:</td><td><div>&lt;socket._fileobject object at 0x0BC70B70&gt;</div></td></tr><tr><td style="font-weight:bold;vertical-align:top;">wsgi.multiprocess</td><td style="vertical-align:top;">:</td><td><div>False</div></td></tr><tr><td style="font-weight:bold;vertical-align:top;">wsgi.multithread</td><td style="vertical-align:top;">:</td><td><div>True</div></td></tr><tr><td style="font-weight:bold;vertical-align:top;">wsgi.run_once</td><td style="vertical-align:top;">:</td><td><div>False</div></td></tr><tr><td style="font-weight:bold;vertical-align:top;">wsgi.url_scheme</td><td style="vertical-align:top;">:</td><td><div>http</div></td></tr><tr><td style="font-weight:bold;vertical-align:top;">wsgi.version</td><td style="vertical-align:top;">:</td><td><div><table><tr><td><div>1</div></td></tr><tr><td><div>0</div></td></tr></table></div></td></tr><tr><td style="font-weight:bold;vertical-align:top;">wsgi_errors</td><td style="vertical-align:top;">:</td><td><div>&lt;open file &#x27;&lt;stderr&gt;&#x27;, mode &#x27;w&#x27; at 0x0224D0D0&gt;</div></td></tr><tr><td style="font-weight:bold;vertical-align:top;">wsgi_file_wrapper</td><td style="vertical-align:top;">:</td><td><div>&lt;class wsgiref.util.FileWrapper at 0x02EC80A0&gt;</div></td></tr><tr><td style="font-weight:bold;vertical-align:top;">wsgi_input</td><td style="vertical-align:top;">:</td><td><div>&lt;socket._fileobject object at 0x0BC70B70&gt;</div></td></tr><tr><td style="font-weight:bold;vertical-align:top;">wsgi_multiprocess</td><td style="vertical-align:top;">:</td><td><div>False</div></td></tr><tr><td style="font-weight:bold;vertical-align:top;">wsgi_multithread</td><td style="vertical-align:top;">:</td><td><div>True</div></td></tr><tr><td style="font-weight:bold;vertical-align:top;">wsgi_run_once</td><td style="vertical-align:top;">:</td><td><div>False</div></td></tr><tr><td style="font-weight:bold;vertical-align:top;">wsgi_url_scheme</td><td style="vertical-align:top;">:</td><td><div>http</div></td></tr><tr><td style="font-weight:bold;vertical-align:top;">wsgi_version</td><td style="vertical-align:top;">:</td><td><div><table><tr><td><div>1</div></td></tr><tr><td><div>0</div></td></tr></table></div></td></tr></table></div></td></tr><tr><td style="font-weight:bold;vertical-align:top;">extension</td><td style="vertical-align:top;">:</td><td><div>json</div></td></tr><tr><td style="font-weight:bold;vertical-align:top;">folder</td><td style="vertical-align:top;">:</td><td><div>C:\\Users\\ANSHUL BASIA\\Desktop\\ACAD\\Sem4\\cop290\\web2py\\applications\\Backend_for_Complaints\\</div></td></tr><tr><td style="font-weight:bold;vertical-align:top;">function</td><td style="vertical-align:top;">:</td><td><div>add_complaint</div></td></tr><tr><td style="font-weight:bold;vertical-align:top;">global_settings</td><td style="vertical-align:top;">:</td><td><div><table><tr><td style="font-weight:bold;vertical-align:top;">app_folders</td><td style="vertical-align:top;">:</td><td><div>set([&#x27;C:\\\\Users\\\\ANSHUL BASIA\\\\Desktop\\\\ACAD\\\\Sem4\\\\cop290\\\\web2py\\\\applications\\\\Backend_for_Complaints\\\\&#x27;, &#x27;C:\\\\Users\\\\ANSHUL BASIA\\\\Desktop\\\\ACAD\\\\Sem4\\\\cop290\\\\web2py\\\\applications\\\\admin\\\\&#x27;, &#x27;C:\\\\Users\\\\ANSHUL BASIA\\\\Desktop\\\\ACAD\\\\Sem4\\\\cop290\\\\web2py\\\\applications\\\\MoodlePlus\\\\&#x27;, &#x27;C:\\\\Users\\\\ANSHUL BASIA\\\\Desktop\\\\ACAD\\\\Sem4\\\\cop290\\\\web2py\\\\applications\\\\welcome\\\\&#x27;])</div></td></tr><tr><td style="font-weight:bold;vertical-align:top;">applications_parent</td><td style="vertical-align:top;">:</td><td><div>C:\\Users\\ANSHUL BASIA\\Desktop\\ACAD\\Sem4\\cop290\\web2py</div></td></tr><tr><td style="font-weight:bold;vertical-align:top;">cmd_args</td><td style="vertical-align:top;">:</td><td><div><table></table></div></td></tr><tr><td style="font-weight:bold;vertical-align:top;">cmd_options</td><td style="vertical-align:top;">:</td><td><div>&lt;Values at 0x2fb1800: {&#x27;verbose&#x27;: False, &#x27;ip&#x27;: &#x27;127.0.0.1&#x27;, &#x27;debuglevel&#x27;: 30, &#x27;with_scheduler&#x27;: False, &#x27;ips&#x27;: [&#x27;192.168.1.41&#x27;, &#x27;2001:0:9d38:6abd:3cc0:ce4:87c7:9555&#x27;, &#x27;fe80::f4e8:1a6a:a38f:c1a9%8&#x27;, &#x27;fe80::3cc0:ce4:87c7:9555%7&#x27;], &#x27;shutdown_timeout&#x27;: 5, &#x27;taskbar&#x27;: False, &#x27;with_coverage&#x27;: False, &#x27;scheduler_groups&#x27;: None, &#x27;port&#x27;: 8000, &#x27;maxthreads&#x27;: None, &#x27;softcron&#x27;: False, &#x27;server_name&#x27;: &#x27;ANSH_27&#x27;, &#x27;bpython&#x27;: False, &#x27;nogui&#x27;: False, &#x27;pid_filename&#x27;: &#x27;httpserver.pid&#x27;, &#x27;print_errors&#x27;: False, &#x27;extcron&#x27;: False, &#x27;runcron&#x27;: False, &#x27;run_system_tests&#x27;: False, &#x27;test&#x27;: None, &#x27;folder&#x27;: &#x27;C:\\\\Users\\\\ANSHUL BASIA\\\\Desktop\\\\ACAD\\\\Sem4\\\\cop290\\\\web2py&#x27;, &#x27;config&#x27;: &#x27;&#x27;, &#x27;minthreads&#x27;: None, &#x27;shell&#x27;: None, &#x27;run&#x27;: &#x27;&#x27;, &#x27;log_filename&#x27;: &#x27;httpserver.log&#x27;, &#x27;profiler_dir&#x27;: None, &#x27;args&#x27;: [&#x27;&#x27;], &#x27;socket_timeout&#x27;: 5, &#x27;ssl_ca_certificate&#x27;: None, &#x27;scheduler&#x27;: None, &#x27;interfaces&#x27;: None, &#x27;ssl_private_key&#x27;: &#x27;&#x27;, &#x27;gae&#x27;: None, &#x27;password&#x27;: &#x27;&lt;ask&gt;&#x27;, &#x27;request_queue_size&#x27;: 5, &#x27;ssl_certificate&#x27;: &#x27;&#x27;, &#x27;cronjob&#x27;: False, &#x27;numthreads&#x27;: None, &#x27;quiet&#x27;: False, &#x27;import_models&#x27;: False, &#x27;timeout&#x27;: 10, &#x27;plain&#x27;: False, &#x27;nobanner&#x27;: False}&gt;</div></td></tr><tr><td style="font-weight:bold;vertical-align:top;">db_sessions</td><td style="vertical-align:top;">:</td><td><div>set([])</div></td></tr><tr><td style="font-weight:bold;vertical-align:top;">debugging</td><td style="vertical-align:top;">:</td><td><div>True</div></td></tr><tr><td style="font-weight:bold;vertical-align:top;">gluon_parent</td><td style="vertical-align:top;">:</td><td><div>C:\\Users\\ANSHUL BASIA\\Desktop\\ACAD\\Sem4\\cop290\\web2py</div></td></tr><tr><td style="font-weight:bold;vertical-align:top;">is_jython</td><td style="vertical-align:top;">:</td><td><div>False</div></td></tr><tr><td style="font-weight:bold;vertical-align:top;">is_pypy</td><td style="vertical-align:top;">:</td><td><div>False</div></td></tr><tr><td style="font-weight:bold;vertical-align:top;">is_source</td><td style="vertical-align:top;">:</td><td><div>False</div></td></tr><tr><td style="font-weight:bold;vertical-align:top;">local_hosts</td><td style="vertical-align:top;">:</td><td><div><table><tr><td><div>ANSH_27</div></td></tr><tr><td><div>::ffff:127.0.0.1</div></td></tr><tr><td><div>::1</div></td></tr><tr><td><div>192.168.1.41</div></td></tr><tr><td><div>fe80::3cc0:ce4:87c7:9555%7</div></td></tr><tr><td><div>fe80::f4e8:1a6a:a38f:c1a9%8</div></td></tr><tr><td><div>127.0.0.1</div></td></tr><tr><td><div>2001:0:9d38:6abd:3cc0:ce4:87c7:9555</div></td></tr></table></div></td></tr><tr><td style="font-weight:bold;vertical-align:top;">web2py_version</td><td style="vertical-align:top;">:</td><td><div>2.13.4-stable+timestamp.2015.12.26.04.59.39</div></td></tr></table></div></td></tr><tr><td style="font-weight:bold;vertical-align:top;">is_https</td><td style="vertical-align:top;">:</td><td><div>False</div></td></tr><tr><td style="font-weight:bold;vertical-align:top;">is_local</td><td style="vertical-align:top;">:</td><td><div>True</div></td></tr><tr><td style="font-weight:bold;vertical-align:top;">is_restful</td><td style="vertical-align:top;">:</td><td><div>False</div></td></tr><tr><td style="font-weight:bold;vertical-align:top;">is_scheduler</td><td style="vertical-align:top;">:</td><td><div>False</div></td></tr><tr><td style="font-weight:bold;vertical-align:top;">is_shell</td><td style="vertical-align:top;">:</td><td><div>False</div></td></tr><tr><td style="font-weight:bold;vertical-align:top;">now</td><td style="vertical-align:top;">:</td><td><div>datetime.datetime(2016, 3, 27, 14, 28, 53, 394000)</div></td></tr><tr><td style="font-weight:bold;vertical-align:top;">raw_args</td><td style="vertical-align:top;">:</td><td><div></div></td></tr><tr><td style="font-weight:bold;vertical-align:top;">raw_extension</td><td style="vertical-align:top;">:</td><td><div>json</div></td></tr><tr><td style="font-weight:bold;vertical-align:top;">url</td><td style="vertical-align:top;">:</td><td><div>/Backend_for_Complaints/api/add_complaint.json</div></td></tr><tr><td style="font-weight:bold;vertical-align:top;">utcnow</td><td style="vertical-align:top;">:</td><td><div>datetime.datetime(2016, 3, 27, 8, 58, 53, 394000)</div></td></tr><tr><td style="font-weight:bold;vertical-align:top;">wsgi</td><td style="vertical-align:top;">:</td><td><div>&lt;gluon.main.LazyWSGI object at 0x0A4036D0&gt;</div></td></tr></table></div>'
tRp62
sS'frames'
p63
(lp64
(dp65
S'file'
p66
S'C:\\Users\\ANSHUL BASIA\\Desktop\\ACAD\\Sem4\\cop290\\web2py\\gluon\\restricted.py'
p67
sS'dump'
p68
(dp69
S'environment'
p70
S"{'A': <class 'gluon.html.A'>, 'ANY_OF': <class 'gluon.validators.ANY_OF'>, 'ASSIGNJS': <function ASSIGNJS>, 'AppConfig': <function AppConfig>, 'Auth': <class 'gluon.tools.Auth'>, 'B': <class 'gluon.html.B'>, 'BEAUTIFY': <class 'gluon.html.BEAUTIFY'>, 'BODY': <class 'gluon.html.BODY'>, 'BR': <class 'gluon.html.BR'>, 'BUTTON': <class 'gluon.html.BUTTON'>, ...}"
p71
sS'ccode'
p72
S'<code object <module> at 0BAF8380, file "C:\\User...ckend_for_Complaints\\controllers/api.py", line 1>'
p73
ssS'lnum'
p74
I227
sS'lines'
p75
(dp76
I224
S'            ccode = code'
p77
sI225
S'        else:'
p78
sI226
S'            ccode = compile2(code, layer)'
p79
sI227
S'        exec ccode in environment'
p80
sI228
S'    except HTTP:'
p81
sI229
S'        raise'
p82
sI230
S'    except RestrictedError:'
p83
sI231
S'        # do not encapsulate (obfuscate) the original RestrictedError'
p84
sI222
S'    try:'
p85
sI223
S'        if isinstance(code, types.CodeType):'
p86
ssS'call'
p87
S"(code='@request.restful()\\ndef get_post():\\n    def GET(i...\\n\\nresponse._vars=response._caller(add_complaint)\\n', environment={'A': <class 'gluon.html.A'>, 'ANY_OF': <class 'gluon.validators.ANY_OF'>, 'ASSIGNJS': <function ASSIGNJS>, 'AppConfig': <function AppConfig>, 'Auth': <class 'gluon.tools.Auth'>, 'B': <class 'gluon.html.B'>, 'BEAUTIFY': <class 'gluon.html.BEAUTIFY'>, 'BODY': <class 'gluon.html.BODY'>, 'BR': <class 'gluon.html.BR'>, 'BUTTON': <class 'gluon.html.BUTTON'>, ...}, layer=r'C:\\Users\\ANSHUL BASIA\\Desktop\\ACAD\\Sem4\\cop290\\w...cations\\Backend_for_Complaints\\controllers/api.py')"
p88
sS'func'
p89
S'restricted'
p90
sa(dp91
g66
S'C:\\Users\\ANSHUL BASIA\\Desktop\\ACAD\\Sem4\\cop290\\web2py\\applications\\Backend_for_Complaints\\controllers\\api.py'
p92
sg68
(dp93
sg74
I62
sg75
(dp94
I51
S'    #def POST(catagory,title,resolved,url,body,votes):'
p95
sI52
S'        #return db.post.validate_and_insert(catagory=catagory,title=title,resolved=resolved,url=url if url else None,body=body,votes=votes)'
p96
sI53
S'    return locals()'
p97
sI54
S'@request.restful()'
p98
sI55
S'def auto():'
p99
sI56
S'    def GET(*args,**vars):'
p100
sI57
S"        parsed=db.parse_as_rest('auto',args,vars)"
p101
sI58
S'        if parsed.status==200:return dict(content=parsed.response)'
p102
sI59
S'        raise HTTP(parsed.status,parsed.error)'
p103
sI60
S'    return locals()'
p104
ssg87
S'()'
p105
sg89
S'<module>'
p106
sa(dp107
g66
S'C:\\Users\\ANSHUL BASIA\\Desktop\\ACAD\\Sem4\\cop290\\web2py\\gluon\\globals.py'
p108
sg68
(dp109
S'self'
p110
S'undefined'
p111
sS'f'
S'<function add_complaint>'
p112
ssg74
I412
sg75
(dp113
I416
S"        self.generic_patterns = ['*']"
p114
sI407
S"        self.flash = ''            # used by the default view layout"
p115
sI408
S'        self.meta = Storage()      # used by web2py_ajax.html'
p116
sI409
S'        self.menu = []             # used by the default view layout'
p117
sI410
S'        self.files = []            # used by web2py_ajax.html'
p118
sI411
S'        self._vars = None'
p119
sI412
S'        self._caller = lambda f: f()'
p120
sI413
S'        self._view_environment = None'
p121
sI414
S'        self._custom_commit = None'
p122
sI415
S'        self._custom_rollback = None'
p123
ssg87
S'(f=<function add_complaint>)'
p124
sg89
S'<lambda>'
p125
sa(dp126
g66
S'C:\\Users\\ANSHUL BASIA\\Desktop\\ACAD\\Sem4\\cop290\\web2py\\applications\\Backend_for_Complaints\\controllers\\api.py'
p127
sg68
(dp128
S'votes'
p129
g111
ssg74
I18
sg75
(dp130
I13
S'        catagory=str(request.vars["catagory"]),'
p131
sI14
S'        complaint_level=int(request.vars["complaint_level"]),'
p132
sI15
S'        title=str(request.vars["title"]),'
p133
sI16
S'        Resolved=str(request.vars["resolved"]),'
p134
sI17
S'        body=str(request.vars["body"]),'
p135
sI18
S'        votes=0'
p136
sI19
S'        #posted_by=user'
p137
sI20
S'        )'
p138
sI21
S'        return user'
p139
sI22
S''
ssg87
S'()'
p140
sg89
S'add_complaint'
p141
sa(dp142
g66
S'C:\\Users\\ANSHUL BASIA\\Desktop\\ACAD\\Sem4\\cop290\\web2py\\gluon\\packages\\dal\\pydal\\objects.py'
p143
sg68
(dp144
S'self._listify'
p145
S'<bound method Table._listify of <Table post (id,...,created_on,created_by,modified_on,modified_by)>>'
p146
sS'fields'
p147
S"{'Resolved': 'false', 'body': 'huh', 'catagory': 'maint', 'complaint_level': 1, 'created_by': <function lazy_user>, 'created_on': datetime.datetime(2016, 3, 27, 14, 28, 53, 394000), 'is_active': True, 'modified_by': <function lazy_user>, 'modified_on': datetime.datetime(2016, 3, 27, 14, 28, 53, 394000), 'title': 'title', ...}"
p148
sS'self'
p149
S'<Table post (id,catagory,complaint_level,title,R...e,created_on,created_by,modified_on,modified_by)>'
p150
sS'ret'
p151
g111
sS'self._db._adapter'
p152
S'<pydal.adapters.sqlite.SQLiteAdapter object>'
p153
sS'self._db._adapter.insert'
p154
S'<bound method SQLiteAdapter.insert of <pydal.adapters.sqlite.SQLiteAdapter object>>'
p155
sS'self._db'
p156
S'<DAL uri="sqlite://storage.sqlite">'
p157
ssg74
I731
sg75
(dp158
I726
S'    def insert(self, **fields):'
p159
sI727
S'        fields = self._defaults(fields)'
p160
sI728
S'        self._attempt_upload(fields)'
p161
sI729
S'        if any(f(fields) for f in self._before_insert):'
p162
sI730
S'            return 0'
p163
sI731
S'        ret = self._db._adapter.insert(self, self._listify(fields))'
p164
sI732
S'        if ret and self._after_insert:'
p165
sI733
S'            fields = Row(fields)'
p166
sI734
S'            [f(fields, ret) for f in self._after_insert]'
p167
sI735
S'        return ret'
p168
ssg87
S"(self=<Table post (id,catagory,complaint_level,title,R...e,created_on,created_by,modified_on,modified_by)>, **fields={'Resolved': 'false', 'body': 'huh', 'catagory': 'maint', 'complaint_level': 1, 'created_by': <function lazy_user>, 'created_on': datetime.datetime(2016, 3, 27, 14, 28, 53, 394000), 'is_active': True, 'modified_by': <function lazy_user>, 'modified_on': datetime.datetime(2016, 3, 27, 14, 28, 53, 394000), 'title': 'title', ...})"
p169
sg89
S'insert'
p170
sa(dp171
g66
S'C:\\Users\\ANSHUL BASIA\\Desktop\\ACAD\\Sem4\\cop290\\web2py\\gluon\\packages\\dal\\pydal\\adapters\\base.py'
p172
sg68
(dp173
S'e'
S"IntegrityError('foreign key constraint failed',)"
p174
ssg74
I746
sg75
(dp175
I741
S'            self.execute(query)'
p176
sI742
S'        except Exception:'
p177
sI743
S'            e = sys.exc_info()[1]'
p178
sI744
S"            if hasattr(table,'_on_insert_error'):"
p179
sI745
S'                return table._on_insert_error(table,fields,e)'
p180
sI746
S'            raise e'
p181
sI747
S"        if hasattr(table, '_primarykey'):"
p182
sI748
S'            mydict = dict([(k[0].name, k[1]) for k in fields if k[0].name in table._primarykey])'
p183
sI749
S'            if mydict != {}:'
p184
sI750
S'                return mydict'
p185
ssg87
S"(self=<pydal.adapters.sqlite.SQLiteAdapter object>, table=<Table post (id,catagory,complaint_level,title,R...e,created_on,created_by,modified_on,modified_by)>, fields=[(<pydal.objects.Field object>, 'huh'), (<pydal.objects.Field object>, 'false'), (<pydal.objects.Field object>, 0), (<pydal.objects.Field object>, <function lazy_user>), (<pydal.objects.Field object>, 'title'), (<pydal.objects.Field object>, 1), (<pydal.objects.Field object>, True), (<pydal.objects.Field object>, <function lazy_user>), (<pydal.objects.Field object>, datetime.datetime(2016, 3, 27, 14, 28, 53, 394000)), (<pydal.objects.Field object>, 'maint'), (<pydal.objects.Field object>, datetime.datetime(2016, 3, 27, 14, 28, 53, 394000))])"
p186
sg89
g170
sasS'pyver'
p187
S'Python 2.7.9: C:\\Users\\ANSHUL BASIA\\Desktop\\ACAD\\Sem4\\cop290\\web2py\\web2py.exe (prefix: C:\\Python27)'
p188
sS'session'
p189
g61
(S's\x0f\x0b\x00\x00<div><table><tr><td style="font-weight:bold;vertical-align:top;">auth</td><td style="vertical-align:top;">:</td><td><div><table><tr><td style="font-weight:bold;vertical-align:top;">expiration</td><td style="vertical-align:top;">:</td><td><div>3600</div></td></tr><tr><td style="font-weight:bold;vertical-align:top;">hmac_key</td><td style="vertical-align:top;">:</td><td><div>ca84344f-6618-470a-8a48-eddbff8334f7</div></td></tr><tr><td style="font-weight:bold;vertical-align:top;">last_visit</td><td style="vertical-align:top;">:</td><td><div>datetime.datetime(2016, 3, 27, 14, 25, 22, 900000)</div></td></tr><tr><td style="font-weight:bold;vertical-align:top;">user</td><td style="vertical-align:top;">:</td><td><div><table><tr><td style="font-weight:bold;vertical-align:top;">email</td><td style="vertical-align:top;">:</td><td><div>mt6140502@iitd.ac.in</div></td></tr><tr><td style="font-weight:bold;vertical-align:top;">entry_no</td><td style="vertical-align:top;">:</td><td><div>2014MT60515</div></td></tr><tr><td style="font-weight:bold;vertical-align:top;">first_name</td><td style="vertical-align:top;">:</td><td><div>ansh</div></td></tr><tr><td style="font-weight:bold;vertical-align:top;">id</td><td style="vertical-align:top;">:</td><td><div>3L</div></td></tr><tr><td style="font-weight:bold;vertical-align:top;">last_name</td><td style="vertical-align:top;">:</td><td><div>basia</div></td></tr><tr><td style="font-weight:bold;vertical-align:top;">registration_id</td><td style="vertical-align:top;">:</td><td><div></div></td></tr><tr><td style="font-weight:bold;vertical-align:top;">registration_key</td><td style="vertical-align:top;">:</td><td><div></div></td></tr><tr><td style="font-weight:bold;vertical-align:top;">reset_password_key</td><td style="vertical-align:top;">:</td><td><div></div></td></tr><tr><td style="font-weight:bold;vertical-align:top;">type_</td><td style="vertical-align:top;">:</td><td><div>None</div></td></tr><tr><td style="font-weight:bold;vertical-align:top;">username</td><td style="vertical-align:top;">:</td><td><div>mt6</div></td></tr></table></div></td></tr><tr><td style="font-weight:bold;vertical-align:top;">user_groups</td><td style="vertical-align:top;">:</td><td><div><table><tr><td style="font-weight:bold;vertical-align:top;">2</td><td style="vertical-align:top;">:</td><td><div>user_3</div></td></tr></table></div></td></tr></table></div></td></tr><tr><td style="font-weight:bold;vertical-align:top;">flash</td><td style="vertical-align:top;">:</td><td><div>None</div></td></tr><tr><td style="font-weight:bold;vertical-align:top;">last_orderby</td><td style="vertical-align:top;">:</td><td><div>None</div></td></tr><tr><td style="font-weight:bold;vertical-align:top;">last_query</td><td style="vertical-align:top;">:</td><td><div>db.users.id&gt;0</div></td></tr></table></div>'
tRp190
sS'etype'
p191
S"<class 'sqlite3.IntegrityError'>"
p192
sS'date'
p193
S'Sun Mar 27 14:28:53 2016'
p194
sS'response'
p195
g61
(S's\xc6%\x00\x00<div><table><tr><td style="font-weight:bold;vertical-align:top;">body</td><td style="vertical-align:top;">:</td><td><div>&lt;cStringIO.StringO object at 0x0A4032C0&gt;</div></td></tr><tr><td style="font-weight:bold;vertical-align:top;">cookies</td><td style="vertical-align:top;">:</td><td><div><table><tr><td style="font-weight:bold;vertical-align:top;">session_id_backend_for_complaints</td><td style="vertical-align:top;">:</td><td><div>127.0.0.1-2b757fab-518c-4226-be7f-1e58e9f71cc4<table><tr><td style="font-weight:bold;vertical-align:top;">comment</td><td style="vertical-align:top;">:</td><td><div></div></td></tr><tr><td style="font-weight:bold;vertical-align:top;">domain</td><td style="vertical-align:top;">:</td><td><div></div></td></tr><tr><td style="font-weight:bold;vertical-align:top;">expires</td><td style="vertical-align:top;">:</td><td><div></div></td></tr><tr><td style="font-weight:bold;vertical-align:top;">httponly</td><td style="vertical-align:top;">:</td><td><div></div></td></tr><tr><td style="font-weight:bold;vertical-align:top;">max-age</td><td style="vertical-align:top;">:</td><td><div></div></td></tr><tr><td style="font-weight:bold;vertical-align:top;">path</td><td style="vertical-align:top;">:</td><td><div>/</div></td></tr><tr><td style="font-weight:bold;vertical-align:top;">secure</td><td style="vertical-align:top;">:</td><td><div></div></td></tr><tr><td style="font-weight:bold;vertical-align:top;">version</td><td style="vertical-align:top;">:</td><td><div></div></td></tr></table></div></td></tr></table></div></td></tr><tr><td style="font-weight:bold;vertical-align:top;">delimiters</td><td style="vertical-align:top;">:</td><td><div><table><tr><td><div>{{</div></td></tr><tr><td><div>}}</div></td></tr></table></div></td></tr><tr><td style="font-weight:bold;vertical-align:top;">files</td><td style="vertical-align:top;">:</td><td><div><table></table></div></td></tr><tr><td style="font-weight:bold;vertical-align:top;">flash</td><td style="vertical-align:top;">:</td><td><div></div></td></tr><tr><td style="font-weight:bold;vertical-align:top;">form_label_separator</td><td style="vertical-align:top;">:</td><td><div></div></td></tr><tr><td style="font-weight:bold;vertical-align:top;">formstyle</td><td style="vertical-align:top;">:</td><td><div>bootstrap3_inline</div></td></tr><tr><td style="font-weight:bold;vertical-align:top;">generic_patterns</td><td style="vertical-align:top;">:</td><td><div><table><tr><td><div>*</div></td></tr></table></div></td></tr><tr><td style="font-weight:bold;vertical-align:top;">google_analytics_id</td><td style="vertical-align:top;">:</td><td><div>None</div></td></tr><tr><td style="font-weight:bold;vertical-align:top;">headers</td><td style="vertical-align:top;">:</td><td><div><table><tr><td style="font-weight:bold;vertical-align:top;">X-Powered-By</td><td style="vertical-align:top;">:</td><td><div>web2py</div></td></tr></table></div></td></tr><tr><td style="font-weight:bold;vertical-align:top;">logo</td><td style="vertical-align:top;">:</td><td><div><a class="navbar-brand" href="http://www.web2py.com/" id="web2py-logo"><b>Complaints</b>&trade;&nbsp;</a></div></td></tr><tr><td style="font-weight:bold;vertical-align:top;">menu</td><td style="vertical-align:top;">:</td><td><div><table><tr><td><div><table><tr><td><div>Home</div></td></tr><tr><td><div>False</div></td></tr><tr><td><div>/Backend_for_Complaints/default/index.json</div></td></tr><tr><td><div><table></table></div></td></tr></table></div></td></tr><tr><td><div><table><tr><td><div>Maintenance</div></td></tr><tr><td><div>False</div></td></tr><tr><td><div>/Backend_for_Complaints/default/list_posts_by_votes.json/Maintenance</div></td></tr></table></div></td></tr><tr><td><div><table><tr><td><div>Acadamics</div></td></tr><tr><td><div>False</div></td></tr><tr><td><div>/Backend_for_Complaints/default/list_posts_by_votes.json/Acadamics</div></td></tr></table></div></td></tr><tr><td><div><table><tr><td><div>Food</div></td></tr><tr><td><div>False</div></td></tr><tr><td><div>/Backend_for_Complaints/default/list_posts_by_votes.json/Food</div></td></tr></table></div></td></tr><tr><td><div><table><tr><td><div>Code_Of_Conduct</div></td></tr><tr><td><div>False</div></td></tr><tr><td><div>/Backend_for_Complaints/default/list_posts_by_votes.json/Code_of_conduct</div></td></tr></table></div></td></tr><tr><td><div><table><tr><td><div>Food</div></td></tr><tr><td><div>False</div></td></tr><tr><td><div>/Backend_for_Complaints/default/list_posts_by_votes.json/food</div></td></tr></table></div></td></tr><tr><td><div><table><tr><td><div>Cataag</div></td></tr><tr><td><div>False</div></td></tr><tr><td><div>/Backend_for_Complaints/default/list_posts_by_votes.json/cataag</div></td></tr></table></div></td></tr><tr><td><div><table><tr><td><div>Hostel</div></td></tr><tr><td><div>False</div></td></tr><tr><td><div>/Backend_for_Complaints/default/list_posts_by_votes.json/hostel</div></td></tr></table></div></td></tr><tr><td><div><table><tr><td><div>Institute</div></td></tr><tr><td><div>False</div></td></tr><tr><td><div>/Backend_for_Complaints/default/list_posts_by_votes.json/institute</div></td></tr></table></div></td></tr><tr><td><div><table><tr><td><div>Individual</div></td></tr><tr><td><div>False</div></td></tr><tr><td><div>/Backend_for_Complaints/default/list_posts_by_votes.json/individual</div></td></tr></table></div></td></tr></table></div></td></tr><tr><td style="font-weight:bold;vertical-align:top;">meta</td><td style="vertical-align:top;">:</td><td><div><table><tr><td style="font-weight:bold;vertical-align:top;">author</td><td style="vertical-align:top;">:</td><td><div>Your Name &lt;you@example.com&gt;</div></td></tr><tr><td style="font-weight:bold;vertical-align:top;">description</td><td style="vertical-align:top;">:</td><td><div>a cool new app</div></td></tr><tr><td style="font-weight:bold;vertical-align:top;">generator</td><td style="vertical-align:top;">:</td><td><div>Web2py Web Framework</div></td></tr><tr><td style="font-weight:bold;vertical-align:top;">keywords</td><td style="vertical-align:top;">:</td><td><div>web2py, python, framework</div></td></tr></table></div></td></tr><tr><td style="font-weight:bold;vertical-align:top;">models_to_run</td><td style="vertical-align:top;">:</td><td><div><table><tr><td><div>^\\w+\\.py$</div></td></tr><tr><td><div>^api/\\w+\\.py$</div></td></tr><tr><td><div>^api/add_complaint/\\w+\\.py$</div></td></tr></table></div></td></tr><tr><td style="font-weight:bold;vertical-align:top;">postprocessing</td><td style="vertical-align:top;">:</td><td><div><table></table></div></td></tr><tr><td style="font-weight:bold;vertical-align:top;">session_client</td><td style="vertical-align:top;">:</td><td><div>127.0.0.1</div></td></tr><tr><td style="font-weight:bold;vertical-align:top;">session_cookie_compression_level</td><td style="vertical-align:top;">:</td><td><div>None</div></td></tr><tr><td style="font-weight:bold;vertical-align:top;">session_cookie_expires</td><td style="vertical-align:top;">:</td><td><div>None</div></td></tr><tr><td style="font-weight:bold;vertical-align:top;">session_cookie_key</td><td style="vertical-align:top;">:</td><td><div>None</div></td></tr><tr><td style="font-weight:bold;vertical-align:top;">session_data_name</td><td style="vertical-align:top;">:</td><td><div>session_data_backend_for_complaints</div></td></tr><tr><td style="font-weight:bold;vertical-align:top;">session_file</td><td style="vertical-align:top;">:</td><td><div>&lt;open file &#x27;C:\\\\Users\\\\ANSHUL BASIA\\\\Desktop\\\\ACAD\\\\Sem4\\\\cop290\\\\web2py\\\\applications\\\\Backend_for_Complaints\\\\sessions\\\\061\\\\120\\\\127.0.0.1-2b757fab-518c-4226-be7f-1e58e9f71cc4&#x27;, mode &#x27;rb+&#x27; at 0x0BBAE910&gt;</div></td></tr><tr><td style="font-weight:bold;vertical-align:top;">session_filename</td><td style="vertical-align:top;">:</td><td><div>C:\\Users\\ANSHUL BASIA\\Desktop\\ACAD\\Sem4\\cop290\\web2py\\applications\\Backend_for_Complaints\\sessions\\127.0.0.1-2b757fab-518c-4226-be7f-1e58e9f71cc4</div></td></tr><tr><td style="font-weight:bold;vertical-align:top;">session_hash</td><td style="vertical-align:top;">:</td><td><div>3f3b70e6448dfb72fd5c77830ab3fe3e</div></td></tr><tr><td style="font-weight:bold;vertical-align:top;">session_id</td><td style="vertical-align:top;">:</td><td><div>127.0.0.1-2b757fab-518c-4226-be7f-1e58e9f71cc4</div></td></tr><tr><td style="font-weight:bold;vertical-align:top;">session_id_name</td><td style="vertical-align:top;">:</td><td><div>session_id_backend_for_complaints</div></td></tr><tr><td style="font-weight:bold;vertical-align:top;">session_locked</td><td style="vertical-align:top;">:</td><td><div>True</div></td></tr><tr><td style="font-weight:bold;vertical-align:top;">session_masterapp</td><td style="vertical-align:top;">:</td><td><div>Backend_for_Complaints</div></td></tr><tr><td style="font-weight:bold;vertical-align:top;">session_new</td><td style="vertical-align:top;">:</td><td><div>False</div></td></tr><tr><td style="font-weight:bold;vertical-align:top;">session_storage_type</td><td style="vertical-align:top;">:</td><td><div>file</div></td></tr><tr><td style="font-weight:bold;vertical-align:top;">status</td><td style="vertical-align:top;">:</td><td><div>200</div></td></tr><tr><td style="font-weight:bold;vertical-align:top;">subtitle</td><td style="vertical-align:top;">:</td><td><div></div></td></tr><tr><td style="font-weight:bold;vertical-align:top;">title</td><td style="vertical-align:top;">:</td><td><div>Backend For Complaints</div></td></tr><tr><td style="font-weight:bold;vertical-align:top;">view</td><td style="vertical-align:top;">:</td><td><div>api/add_complaint.json</div></td></tr></table></div>'
tRp196
sS'locals'
p197
(dp198
S'fields'
p199
S"[(<pydal.objects.Field object>, 'huh'), (<pydal.objects.Field object>, 'false'), (<pydal.objects.Field object>, 0), (<pydal.objects.Field object>, <function lazy_user>), (<pydal.objects.Field object>, 'title'), (<pydal.objects.Field object>, 1), (<pydal.objects.Field object>, True), (<pydal.objects.Field object>, <function lazy_user>), (<pydal.objects.Field object>, datetime.datetime(2016, 3, 27, 14, 28, 53, 394000)), (<pydal.objects.Field object>, 'maint'), (<pydal.objects.Field object>, datetime.datetime(2016, 3, 27, 14, 28, 53, 394000))]"
p200
sS'self'
p201
S'<pydal.adapters.sqlite.SQLiteAdapter object>'
p202
sS'e'
S"IntegrityError('foreign key constraint failed',)"
p203
sS'table'
p204
S'<Table post (id,catagory,complaint_level,title,R...e,created_on,created_by,modified_on,modified_by)>'
p205
sS'query'
p206
S'"INSERT INTO post(body,Resolved,votes,modified_by...6-03-27 14:28:53\',\'maint\',\'2016-03-27 14:28:53\');"'
p207
sssS'traceback'
p208
S'Traceback (most recent call last):\n  File "C:\\Users\\ANSHUL BASIA\\Desktop\\ACAD\\Sem4\\cop290\\web2py\\gluon\\restricted.py", line 227, in restricted\n    exec ccode in environment\n  File "C:\\Users\\ANSHUL BASIA\\Desktop\\ACAD\\Sem4\\cop290\\web2py\\applications\\Backend_for_Complaints\\controllers/api.py", line 62, in <module>\n  File "C:\\Users\\ANSHUL BASIA\\Desktop\\ACAD\\Sem4\\cop290\\web2py\\gluon\\globals.py", line 412, in <lambda>\n    self._caller = lambda f: f()\n  File "C:\\Users\\ANSHUL BASIA\\Desktop\\ACAD\\Sem4\\cop290\\web2py\\applications\\Backend_for_Complaints\\controllers/api.py", line 18, in add_complaint\n    votes=0\n  File "C:\\Users\\ANSHUL BASIA\\Desktop\\ACAD\\Sem4\\cop290\\web2py\\gluon\\packages\\dal\\pydal\\objects.py", line 731, in insert\n    ret = self._db._adapter.insert(self, self._listify(fields))\n  File "C:\\Users\\ANSHUL BASIA\\Desktop\\ACAD\\Sem4\\cop290\\web2py\\gluon\\packages\\dal\\pydal\\adapters\\base.py", line 746, in insert\n    raise e\nIntegrityError: foreign key constraint failed\n'
p209
s.